(lp0
(dp1
S'articles'
p2
(lp3
(dp4
S'title'
p5
S'\xc9\xec\xcf\xf2\xba\xa2\xd7\xd3\xb5\xc4\xa1\xb0\xb6\xbe\xd7\xa6\xa1\xb1\xb1\xd8\xd0\xeb\xbc\xe1\xbe\xf6\xd5\xb6\xb6\xcf'
p6
sS'link'
p7
S'http://www.cnr.cn/newscenter/comment/latest/201406/t20140627_515739235.shtml'
p8
sS'tags'
p9
(lp10
V\u9752\u5c11\u5e74
p11
aV\u6bd2\u54c1
p12
aV\u7981\u6bd2
p13
aV\u5438\u6bd2
p14
aV\u6bd2\u722a
p15
aV\u65a9\u65ad
p16
aV\u4f38\u5411
p17
aV\u72af\u7f6a
p18
aV\u4e0d\u6cd5\u5206\u5b50
p19
aV\u5f15\u8bf1
p20
asa(dp21
g5
S'\xc4\xfe\xb2\xc6\xc9\xf1\xd5\xc5\xd4\xaa\xce\xfc\xb6\xbe\xb2\xbb\xc4\xdc\xb5\xb1\xb0\xcb\xd8\xd4'
p22
sg7
S'http://www.cnr.cn/newscenter/comment/latest/201406/t20140627_515739141.shtml'
p23
sg9
(lp24
V\u5438\u6bd2
p25
aV\u5b81\u8d22\u795e
p26
aV\u540d\u4eba
p27
aV\u660e\u661f
p28
aV\u516b\u5366
p29
aV\u516c\u4f17
p30
aV\u5f20\u5143
p31
aV\u5f71\u89c6\u5708
p32
aV\u9891\u9053
p33
aV\u6bd2\u54c1
p34
asa(dp35
g5
S'\xd4\xd9\xc4\xd1\xd2\xb2\xd2\xaa\xb6\xf4\xd6\xc6\xb6\xbe\xc6\xb7\xb7\xba\xc0\xc4\xb5\xc4\xca\xc6\xcd\xb7'
p36
sg7
S'http://www.cnr.cn/newscenter/comment/latest/201406/t20140627_515739084.shtml'
p37
sg9
(lp38
V\u6bd2\u54c1
p39
aV\u5438\u6bd2
p40
aV\u7981\u6bd2
p41
aV\u793e\u4f1a
p42
aV\u5371\u5bb3
p43
aV\u6cdb\u6ee5
p44
aV\u4e2d\u56fd
p45
aV\u53cd\u6bd2
p46
aV\u624d\u80fd
p47
aV\u8d29\u6bd2
p48
asa(dp49
g5
S'\xce\xc4\xd2\xd5\xbd\xe7\xc3\xfb\xc8\xcb\xce\xfc\xb6\xbe\xa3\xba\xcb\xfb\xc3\xc7\xb2\xbb\xca\xc7\xa1\xb0\xb0\xf1\xd1\xf9\xa1\xb1'
p50
sg7
S'http://www.cnr.cn/newscenter/comment/latest/201406/t20140627_515739058.shtml'
p51
sg9
(lp52
V\u5438\u6bd2
p53
aV\u6d89\u6bd2
p54
aV\u6bd2\u54c1
p55
aV\u590d\u5438
p56
aV\u660e\u661f
p57
aV\u5438\u98df
p58
aV\u540d\u4eba
p59
aV\u805a\u5438
p60
aV\u699c\u6837
p61
aV\u4ed6\u4eec
p62
asasS'tags'
p63
c__builtin__
set
p64
((lp65
g25
ag34
atp66
Rp67
sa(dp68
g2
(lp69
(dp70
g5
S'\xa1\xb0\xb1\xbb\xb0\xb2\xc5\xc5\xb5\xc4\xc0\xa7\xc4\xd1\xbb\xa7\xa1\xb1\xd3\xeb\xa1\xb0\xce\xde\xc8\xcb\xd0\xde\xb8\xc4\xb5\xc4\xbe\xe7\xb1\xbe\xa1\xb1'
p71
sg7
S'http://www.cnr.cn/newscenter/comment/latest/201406/t20140627_515739094.shtml'
p72
sg9
(lp73
V\u6170\u95ee
p74
aV\u5b98\u5458
p75
aV\u56f0\u96be\u6237
p76
aV\u5f62\u5f0f\u4e3b\u4e49
p77
aV\u5267\u672c
p78
aV\u4e00\u4e9b
p79
aV\u81ea\u6211\u6279\u8bc4
p80
aV\u4e00\u628a\u624b
p81
aV\u770b\u4f3c
p82
aV\u5173\u7cfb\u6237
p83
asa(dp84
g5
S'\xce\xbf\xce\xca\xc0\xa7\xc4\xd1\xbb\xa7\xb1\xbb\xb0\xb2\xc5\xc5\xa3\xac\xb7\xb4\xd0\xce\xca\xbd\xd6\xf7\xd2\xe5\xd3\xd0\xb6\xe0\xc4\xd1\xa3\xbf'
p85
sg7
S'http://www.cnr.cn/newscenter/comment/latest/201406/t20140627_515738996.shtml'
p86
sg9
(lp87
V\u6170\u95ee
p88
aV\u5f62\u5f0f\u4e3b\u4e49
p89
aV\u5b98\u5458
p90
aV\u5173\u7cfb\u6237
p91
aV\u5b89\u6392
p92
aV\u9020\u5047
p93
aV\u4e00\u4e9b
p94
aV\u8fd9\u6837
p95
aV\u9886\u5bfc
p96
aV\u6cb9\u7c73
p97
asasg63
g64
((lp98
g94
ag90
ag88
ag89
ag91
atp99
Rp100
sa(dp101
g2
(lp102
(dp103
g5
S'\xd3\xc3\xd3\xda\xc3\xf1\xc9\xfa\xb5\xc4\xb9\xfa\xc6\xf3\xba\xec\xc0\xfb\xce\xaa\xba\xce\xd5\xe2\xc3\xb4\xc9\xd9'
p104
sg7
S'http://www.cnr.cn/newscenter/comment/latest/201406/t20140626_515731782.shtml'
p105
sg9
(lp106
V\u56fd\u4f01
p107
aV\u6c11\u751f
p108
aV\u5206\u7ea2
p109
aV\u4e0a\u4ea4
p110
aV\u7ea2\u5229
p111
aV\u652f\u51fa
p112
aV2013
p113
aV\u80a1\u4e1c
p114
aV\u7528\u4e8e
p115
aV\u56fd\u6709\u8d44\u672c
p116
asa(dp117
g5
S'\xb9\xfa\xc6\xf3\xc0\xfb\xc8\xf3\xbb\xdd\xbc\xb0\xc8\xab\xc3\xf1\xba\xce\xca\xb1\xb2\xbb\xd4\xd9\xa1\xb0\xcf\xf3\xd5\xf7\xd0\xd4\xa1\xb1'
p118
sg7
S'http://www.cnr.cn/newscenter/comment/latest/201406/t20140626_515731766.shtml'
p119
sg9
(lp120
V\u56fd\u4f01
p121
aV\u4e0a\u7f34
p122
aV\u7ea2\u5229
p123
aV\u5168\u6c11
p124
aV\u6bd4\u4f8b
p125
aV\u592e\u4f01
p126
aV7.7
p127
aV2013
p128
aV\u56fd\u6709\u8d44\u672c
p129
aV\u7c7b\u592e\u4f01
p130
asasg63
g64
((lp131
g129
ag121
ag123
ag128
atp132
Rp133
sa(dp134
g2
(lp135
(dp136
g5
S'\xd5\xc5\xd6\xbe\xbe\xfc\xbb\xd8\xb7\xc3\xcc\xa8\xcd\xe5 \xd2\xd4\xca\xb5\xbc\xca\xd7\xdf\xb6\xaf\xcd\xc6\xbd\xf8\xbb\xa5\xd0\xc5'
p137
sg7
S'http://www.cnr.cn/newscenter/comment/latest/201406/t20140626_515731859.shtml'
p138
sg9
(lp139
V\u4e24\u5cb8\u5173\u7cfb
p140
aV\u5f20\u5fd7\u519b
p141
aV\u4e24\u5cb8
p142
aV\u4e24\u5cb8\u4eba\u6c11
p143
aV\u8bbf\u53f0
p144
aV\u548c\u5e73
p145
aV\u9646\u59d4\u4f1a
p146
aV\u653f\u6cbb
p147
aV\u53d1\u5c55
p148
aV\u6781\u5177
p149
asa(dp150
g5
S'\xd5\xc5\xd6\xbe\xbe\xfc\xb7\xc3\xcc\xa8\xa3\xba\xcb\xae\xb5\xbd\xc7\xfe\xb3\xc9\xb5\xc4\xcd\xbb\xc6\xc6'
p151
sg7
S'http://www.cnr.cn/newscenter/comment/latest/201406/t20140626_515731675.shtml'
p152
sg9
(lp153
V\u5f20\u5fd7\u519b
p154
aV\u8bbf\u53f0
p155
aV\u4e24\u5cb8\u5173\u7cfb
p156
aV\u4e24\u5cb8
p157
aV\u53f0\u6e7e
p158
aV\u4ea4\u6d41
p159
aV\u673a\u5236\u5316
p160
aV\u5927\u9646
p161
aV\u7834\u51b0
p162
aV\u6c34\u5230\u6e20\u6210
p163
asasg63
g64
((lp164
g156
ag154
ag157
ag155
atp165
Rp166
sa(dp167
g2
(lp168
(dp169
g5
S'\xb7\xf6\xc6\xb6\xd7\xca\xbd\xf0\xd2\xc0\xc8\xbb\xca\xc7\xa1\xb0\xcc\xc6\xc9\xae\xc8\xe2\xa1\xb1'
p170
sg7
S'http://www.cnr.cn/newscenter/comment/latest/201406/t20140630_515754353.shtml'
p171
sg9
(lp172
V\u6276\u8d2b
p173
aV\u8d44\u91d1
p174
aV\u5510\u50e7\u8089
p175
aV\u5ba1\u8ba1
p176
aV\u4fdd\u547d\u94b1
p177
aV\u632a\u7528
p178
aV\u95ee\u9898
p179
aV\u8fdd\u6cd5
p180
aV\u8fdd\u89c4
p181
aV\u8fdd\u89c4\u8005
p182
asa(dp183
g5
S'\xa1\xb0\xc2\xc5\xc9\xf3\xc2\xc5\xb7\xb8\xa1\xb1\xcc\xe1\xca\xbe\xbd\xe2\xbe\xf6\xce\xca\xcc\xe2\xb7\xbd\xcf\xf2'
p184
sg7
S'http://www.cnr.cn/newscenter/comment/latest/201406/t20140627_515739134.shtml'
p185
sg9
(lp186
V\u95ee\u9898
p187
aV\u5ba1\u8ba1
p188
aV\u6211\u4eec
p189
aV\u793e\u4f1a\u516c\u4f17
p190
aV\u671f\u5f85
p191
aV\u8001\u9762\u5b54
p192
aV\u6cbb\u7406
p193
aV\u5355\u4f4d
p194
aV\u89e3\u51b3
p195
aV\u5236\u5ea6
p196
asa(dp197
g5
S'\xd2\xd4\xd6\xc6\xb6\xc8\xbd\xa8\xc9\xe8\xb6\xc2\xd7\xa1\xb2\xc6\xd5\xfe\xd7\xca\xbd\xf0\xa1\xb0\xc5\xdc\xc3\xb0\xb5\xce\xc2\xa9\xa1\xb1'
p198
sg7
S'http://www.cnr.cn/newscenter/comment/latest/201406/t20140625_515724053.shtml'
p199
sg9
(lp200
V\u8d22\u653f\u8d44\u91d1
p201
aV\u5ba1\u8ba1
p202
aV\u95ee\u9898
p203
aV\u5ba1\u8ba1\u7f72
p204
aV\u4f7f\u7528
p205
aV\u653f\u5e9c\u90e8\u95e8
p206
aV\u5236\u5ea6
p207
aV\u5ba1\u8ba1\u5de5\u4f5c
p208
aV\u653f\u5e9c
p209
aV\u4f53\u5236\u6539\u9769
p210
asa(dp211
g5
S'\xc9\xf3\xbc\xc6\xcd\xa8\xb1\xa8\xce\xaa\xc9\xb6\xb2\xbb\xa1\xb0\xd6\xb8\xc3\xfb\xb5\xc0\xd0\xd5\xa1\xb1'
p212
sg7
S'http://www.cnr.cn/newscenter/comment/latest/201406/t20140618_515681676.shtml'
p213
sg9
(lp214
V\u901a\u62a5
p215
aV\u8fdd\u89c4
p216
aV\u515a\u7eaa\u653f\u7eaa
p217
aV\u5ba1\u8ba1
p218
aV89
p219
aV\u516c\u4f17
p220
aV\u5ba1\u8ba1\u7f72
p221
aV\u8ffd\u7a76
p222
aV\u5904\u5206
p223
aV\u8d23\u4efb\u4eba
p224
asa(dp225
g5
S'\xb9\xb2\xd3\xd0\xb2\xfa\xc8\xa8\xb7\xbf\xca\xc7\xb2\xbb\xca\xc7\xb1\xa3\xd5\xcf\xb7\xbf\xa3\xbf'
p226
sg7
S'http://www.cnr.cn/newscenter/comment/latest/201406/t20140613_515660083.shtml'
p227
sg9
(lp228
V\u4ea7\u6743
p229
aV\u5171\u6709
p230
aV\u4f4f\u623f
p231
aV\u4fdd\u969c
p232
aV\u5546\u54c1\u623f
p233
aV\u5c45\u6c11
p234
aV\u9650\u4ef7
p235
aV\u653f\u5e9c
p236
aV\u9002\u623f
p237
aV\u95ee\u9898
p238
asa(dp239
g5
S'\xcd\xc6\xb3\xf6\xb8\xfc\xb6\xe0\xb5\xd8\xb7\xbd\xb0\xe6\xca\xb3\xc6\xb7\xa1\xb0\xba\xda\xc3\xfb\xb5\xa5\xa1\xb1'
p240
sg7
S'http://www.cnr.cn/newscenter/comment/latest/201406/t20140612_515654888.shtml'
p241
sg9
(lp242
V\u9ed1\u540d\u5355
p243
aV\u98df\u54c1\u5b89\u5168
p244
aV\u98df\u54c1
p245
aV\u5236\u5ea6
p246
aV\u98df\u836f
p247
aV\u8fdd\u6cd5
p248
aV\u603b\u5c40
p249
aV\u9009\u9879
p250
aV\u95ee\u9898
p251
aV\u4f01\u4e1a
p252
asa(dp253
g5
S'\xb9\xab\xbf\xee\xc5\xe0\xd1\xb5\xb8\xbb\xb6\xfe\xb4\xfa\xa3\xac\xd3\xd0\xba\xce\xb2\xbb\xbf\xc9'
p254
sg7
S'http://www.cnr.cn/newscenter/comment/latest/201405/t20140529_515596572.shtml'
p255
sg9
(lp256
V\u56fd\u4f01
p257
aV\u653f\u5e9c
p258
aV\u6c11\u4f01
p259
aV\u4e8c\u4ee3
p260
aV\u63a5\u73ed
p261
aV\u793e\u4f1a
p262
aV\u4e71\u82b1\u94b1
p263
aV\u95ee\u9898
p264
aV\u8d28\u7591
p265
aV\u5e94\u8be5
p266
asa(dp267
g5
S'\xd7\xee\xd1\xcf\xca\xb3\xc6\xb7\xb7\xa8\xcd\xd0\xd7\xa1\xb5\xc0\xb5\xc2\xb5\xd7\xcf\xdf'
p268
sg7
S'http://www.cnr.cn/newscenter/comment/latest/201405/t20140516_515523085.shtml'
p269
sg9
(lp270
V\u98df\u54c1\u5b89\u5168
p271
aV\u8f6c\u578b\u671f
p272
aV\u95ee\u9898
p273
aV\u9053\u5fb7
p274
aV\u5236\u5ea6
p275
aV\u5efa\u6784
p276
aV\u4e25\u5389
p277
aV\u6c11\u4f17
p278
aV\u5e95\u7ebf
p279
aV\u6cd5\u6761
p280
asasg63
g64
((lp281
g188
ag187
atp282
Rp283
sa(dp284
g2
(lp285
(dp286
g5
S'\xa1\xb0\xd2\xd4\xb7\xbf\xd1\xf8\xc0\xcf\xa1\xb1\xb2\xbb\xc4\xdc\xcc\xe6\xb4\xfa\xbb\xf9\xb1\xbe\xd1\xf8\xc0\xcf'
p287
sg7
S'http://www.cnr.cn/newscenter/comment/latest/201406/t20140625_515724097.shtml'
p288
sg9
(lp289
V\u517b\u8001
p290
aV\u4ee5\u623f
p291
aV\u4f4f\u623f
p292
aV\u91d1\u878d\u673a\u6784
p293
aV\u63d0\u4f9b\u8005
p294
aV\u501f\u6b3e\u4eba
p295
aV\u517b\u8001\u91d1
p296
aV\u5229\u7387
p297
aV\u623f\u4ef7
p298
aV\u8bd5\u70b9
p299
asa(dp300
g5
S'\xa1\xb0\xd2\xd4\xb7\xbf\xd1\xf8\xc0\xcf\xa1\xb1\xd7\xf7\xd3\xc3\xb7\xc7\xb3\xa3\xd3\xd0\xcf\xde'
p301
sg7
S'http://www.cnr.cn/newscenter/comment/latest/201406/t20140625_515723874.shtml'
p302
sg9
(lp303
V\u517b\u8001
p304
aV\u4ee5\u623f
p305
aV\u62b5\u62bc
p306
aV\u53cd\u5411
p307
aV\u8bd5\u70b9
p308
aV\u623f\u4ea7
p309
aV\u8865\u5145
p310
aV\u7ea0\u7ed3
p311
aV\u5e74\u91d1
p312
aV\u4e2a\u4eba
p313
asasg63
g64
((lp314
g305
ag308
ag304
atp315
Rp316
sa(dp317
g2
(lp318
(dp319
g5
S'\xa1\xb0\xb8\xb4\xb6\xc1\xd7\xb4\xd4\xaa\xa1\xb1\xa3\xac\xbd\xf8\xb1\xb1\xb4\xf3\xbe\xcd\xd0\xd2\xb8\xa3\xc1\xcb\xc2\xf0\xa3\xbf'
p320
sg7
S'http://www.cnr.cn/newscenter/comment/latest/201406/t20140625_515723916.shtml'
p321
sg9
(lp322
V\u4e01\u5b81
p323
aV\u5317\u5927
p324
aV\u6e2f\u5927
p325
aV\u590d\u8bfb
p326
aV\u9009\u62e9
p327
aV\u53e4\u5178\u6587\u5b66
p328
aV\u72b6\u5143
p329
aV\u9ad8\u8003
p330
aV\u5962\u4f88
p331
aV\u884c\u8def\u96be
p332
asa(dp333
g5
S'\xc6\xfa\xb8\xdb\xb4\xf3\xd1\xa1\xb1\xb1\xb4\xf3\xa3\xac\xc1\xf5\xb6\xa1\xc4\xfe\xb5\xc4\xc8\xeb\xca\xc0\xd3\xeb\xb3\xf6\xca\xc0'
p334
sg7
S'http://www.cnr.cn/newscenter/comment/latest/201406/t20140624_515720252.shtml'
p335
sg9
(lp336
V\u4e01\u5b81
p337
aV\u5317\u5927
p338
aV\u6e2f\u5927
p339
aV\u5c31\u8bfb
p340
aV\u590d\u8bfb
p341
aV\u5165\u4e16
p342
aV\u5317\u5927\u4e2d\u6587\u7cfb
p343
aV\u80fd\u5426
p344
aV\u5a92\u4f53
p345
aV\u4ec1\u8005
p346
asasg63
g64
((lp347
g337
ag338
ag339
ag341
atp348
Rp349
sa(dp350
g2
(lp351
(dp352
g5
S'[\xc0\xcf\xb9\xf9\xd9\xa9\xc7\xf2]\xba\xc9\xc0\xbc\xca\xa4\xd4\xda\xa1\xb0\xb2\xbb\xb7\xc5\xc6\xfa\xa1\xb1'
p353
sg7
S'http://www.cnr.cn/newscenter/comment/latest/201406/t20140630_515754756.shtml'
p354
sg9
(lp355
V\u8377\u5170\u961f
p356
aV\u58a8\u897f\u54e5\u961f
p357
aVnbsp
p358
aV\u70b9\u7403
p359
aV\u7f57\u672c
p360
aV\u5206\u949f
p361
aV\u672c\u573a
p362
aV\u591a\u65af\u6851\u6258\u65af
p363
aV\u6362\u4e0b
p364
aV\u6bd4\u8d5b
p365
asa(dp366
g5
S'[\xc0\xcf\xb9\xf9\xd9\xa9\xc7\xf2]\xd3\xd0\xd2\xbb\xd6\xd6\xd5\xbd\xc2\xd4\xbd\xd0\xa1\xb0\xd7\xb0\xc9\xb5\xa1\xb1'
p367
sg7
S'http://www.cnr.cn/newscenter/comment/latest/201406/t20140624_515717893.shtml'
p368
sg9
(lp369
V\u8377\u5170\u961f
p370
aV\u667a\u5229\u961f
p371
aV\u7f57\u672c
p372
aV\u6bd4\u8d5b
p373
aV\u4e2d\u573a
p374
aV\u88c5\u50bb
p375
aV\u7406\u8bba
p376
aV\u5bf9\u624b
p377
aV\u4e0b\u5e95\u4f20\u4e2d
p378
aV\u5206\u949f
p379
asasg63
g64
((lp380
g370
ag373
ag372
ag379
atp381
Rp382
sa(dp383
g2
(lp384
(dp385
g5
S'\xbe\xdc\xb3\xd4\xb9\xb7\xc8\xe2\xce\xaa\xba\xce\xc4\xd1\xd2\xd4\xb4\xef\xb3\xc9\xb9\xb2\xca\xb6'
p386
sg7
S'http://www.cnr.cn/newscenter/comment/latest/201406/t20140625_515724099.shtml'
p387
sg9
(lp388
V\u72d7\u8089
p389
aV\u7389\u6797
p390
aV\u5171\u8bc6
p391
aV\u68c0\u75ab
p392
aV\u52a8\u7269
p393
aV\u6587\u660e
p394
aV\u4e00\u8bc1
p395
aV\u4e00\u72ac
p396
aV\u5f62\u6210
p397
aV\u4f34\u4fa3
p398
asa(dp399
g5
S'\xb1\xf0\xba\xf6\xc2\xd4\xb9\xb7\xc8\xe2\xd6\xae\xd5\xf9\xd6\xd0\xa1\xb0\xb3\xc1\xc4\xac\xb5\xc4\xb4\xf3\xb6\xe0\xca\xfd\xa1\xb1'
p400
sg7
S'http://www.cnr.cn/newscenter/comment/latest/201406/t20140625_515723879.shtml'
p401
sg9
(lp402
V\u72d7\u8089
p403
aV\u7231\u72d7\u8005
p404
aV\u7389\u6797
p405
aV\u6781\u7aef
p406
aV\u6c89\u9ed8
p407
aV\u4e24\u6d3e
p408
aV\u5927\u591a\u6570
p409
aV\u72d7\u7c89
p410
aV\u7231\u72d7
p411
aV\u6700\u8be5
p412
asa(dp413
g5
S'\xb9\xd8\xd3\xda\xa1\xb0\xb9\xb7\xa1\xb1\xb5\xc4\xc4\xc7\xb5\xe3\xca\xc2'
p414
sg7
S'http://www.cnr.cn/newscenter/comment/latest/201406/t20140624_515717087.shtml'
p415
sg9
(lp416
V\u72d7\u8089
p417
aV\u7231\u72d7
p418
aV\u996e\u98df
p419
aV\u4eba\u58eb
p420
aV\u7b14\u8005
p421
aV\u98df\u5ba2
p422
aV\u7075\u6027
p423
aV\u6761\u6587
p424
aV\u8282\u5236
p425
aV\u4e0d\u987e
p426
asa(dp427
g5
S'\xd3\xf1\xc1\xd6\xb9\xb7\xc8\xe2\xbd\xda\xa3\xac\xb8\xc3\xd5\xf9\xc2\xdb\xca\xb2\xc3\xb4\xa3\xbf'
p428
sg7
S'http://www.cnr.cn/newscenter/comment/latest/201406/t20140623_515708124.shtml'
p429
sg9
(lp430
V\u72d7\u8089
p431
aV\u7389\u6797
p432
aV\u95ee\u9898
p433
aV\u5bf9\u65b9
p434
aV\u4e89\u8bba
p435
aV\u8fc7\u8282
p436
aV\u516c\u4f17
p437
aV\u4e4b\u8fa9
p438
aV\u8fd8\u662f
p439
aV\u4e0d\u5403
p440
asa(dp441
g5
S'\xb3\xd4\xb9\xb7\xd3\xeb\xb0\xae\xb9\xb7\xb5\xc4\xc7\xe9\xc0\xed\xb7\xa8'
p442
sg7
S'http://www.cnr.cn/newscenter/comment/latest/201406/t20140623_515708119.shtml'
p443
sg9
(lp444
V\u7231\u72d7\u8005
p445
aV\u72d7\u8089
p446
aV\u60c5\u611f
p447
aV\u7389\u6797
p448
aV\u7231\u72d7
p449
aV\u9053\u7406
p450
aV\u884c\u4e3a
p451
aV\u72d7\u72d7
p452
aV\u53ef\u7231
p453
aV\u4f24\u5bb3
p454
asa(dp455
g5
S'\xb2\xbb\xb1\xd8\xbe\xaa\xb2\xef\xd3\xda\xb9\xb7\xc8\xe2\xbd\xda\xb5\xc4\xd5\xf9\xd6\xb4\xd3\xeb\xce\xa7\xb9\xdb'
p456
sg7
S'http://www.cnr.cn/newscenter/comment/latest/201406/t20140623_515707540.shtml'
p457
sg9
(lp458
V\u72d7\u8089
p459
aV\u7389\u6797
p460
aV\u516c\u5171
p461
aV\u56f4\u89c2
p462
aV\u8868\u8fbe
p463
aV\u4e8b\u4ef6
p464
aV\u610f\u89c1
p465
aV\u4e89\u6267
p466
aV\u5f53\u5730\u4eba
p467
aV\u73b0\u5b9e
p468
asa(dp469
g5
S'\xb9\xb7\xc8\xe2\xbd\xda\xd6\xae\xd5\xf9\xa3\xac\xba\xce\xb1\xd8\xb5\xb6\xb9\xe2\xbd\xa3\xd3\xb0'
p470
sg7
S'http://www.cnr.cn/newscenter/comment/latest/201406/t20140618_515681671.shtml'
p471
sg9
(lp472
V\u72d7\u8089
p473
aV\u4e0d\u5403
p474
aV\u7389\u6797
p475
aV\u5b98\u65b9
p476
aV\u90a3\u4e48
p477
aV\u8fd9\u6837
p478
aV\u53ef\u4ee5
p479
aV\u7981\u6b62
p480
aV\u4eba\u58eb
p481
aV\u6587\u660e
p482
asa(dp483
g5
S'\xd5\xfe\xb8\xae\xd3\xeb\xa1\xb0\xb9\xb7\xc8\xe2\xbd\xda\xa1\xb1\xbb\xae\xc7\xe5\xbd\xe7\xcf\xde\xba\xdc\xc3\xf7\xd6\xc7'
p484
sg7
S'http://www.cnr.cn/newscenter/comment/latest/201406/t20140618_515681635.shtml'
p485
sg9
(lp486
V\u72d7\u8089
p487
aV\u653f\u5e9c
p488
aV\u7389\u6797
p489
aV\u6c11\u95f4
p490
aV\u8089\u94fa
p491
aV\u590f\u81f3
p492
aV\u7389\u6797\u5e02
p493
aV\u63d2\u8db3
p494
aV\u53e3\u98ce
p495
aV\u6697\u5730\u91cc
p496
asa(dp497
g5
S'\xa1\xb0\xb9\xb7\xc8\xe2\xb9\xb5\xcd\xa8\xa1\xb1\xb9\xfd\xb3\xcc\xb1\xc8\xbd\xe1\xb9\xfb\xb8\xfc\xd6\xd8\xd2\xaa'
p498
sg7
S'http://www.cnr.cn/newscenter/comment/latest/201406/t20140613_515660098.shtml'
p499
sg9
(lp500
V\u6c9f\u901a
p501
aV\u5171\u8bc6
p502
aV\u72d7\u8089
p503
aV\u7389\u6797
p504
aV\u7ed3\u679c
p505
aV\u5355\u4e00
p506
aV\u5f88\u96be
p507
aV\u8fdb\u6b65
p508
aV\u6307\u5411
p509
aV\u4e8c\u9009
p510
asasg63
g64
((lp511
g403
ag405
atp512
Rp513
sa(dp514
g2
(lp515
(dp516
g5
S'\xb9\xe6\xbb\xae\xb2\xbb\xd7\xf0\xd6\xd8\xb9\xe6\xc2\xc9\xbe\xcd\xca\xc7\xd7\xee\xb4\xf3\xb5\xc4\xbc\xc9\xbb\xe4'
p517
sg7
S'http://www.cnr.cn/newscenter/comment/latest/201406/t20140627_515739019.shtml'
p518
sg9
(lp519
V\u89c4\u5212
p520
aV\u5931\u8bef
p521
aV\u516c\u5171
p522
aV\u516c\u5171\u8d44\u6e90
p523
aV\u51b3\u7b56
p524
aV\u5de5\u7a0b
p525
aV\u89c4\u5212\u8bbe\u8ba1
p526
aV\u516c\u4f17
p527
aV\u653f\u5e9c
p528
aV\u6d6a\u8d39
p529
asa(dp530
g5
S'2.7\xd2\xda\xa1\xb0\xb3\xa4\xc0\xc8\xa1\xb13\xd2\xda\xb2\xf0\xc5\xc4\xc4\xd4\xb4\xfc\xbe\xf6\xb2\xdf\xd0\xeb\xd7\xb7\xd4\xf0'
p531
sg7
S'http://www.cnr.cn/newscenter/comment/latest/201406/t20140623_515708823.shtml'
p532
sg9
(lp533
V\u51b3\u7b56
p534
aV\u5931\u8bef
p535
aV\u5982\u6b64
p536
aV\u957f\u5eca
p537
aV\u6cb3\u53e3\u53bf
p538
aV\u9879\u76ee
p539
aV\u95ee\u8d23
p540
aV2.7
p541
aV\u64a4\u804c
p542
aV\u5224\u5211
p543
asa(dp544
g5
S'\xa1\xb03\xd2\xda\xb2\xf0\xb3\xa4\xc0\xc8\xa1\xb1\xa3\xac\xca\xc7\xb7\xf1\xc0\xcb\xb7\xd1\xcb\xad\xcb\xb5\xc1\xcb\xcb\xe3'
p545
sg7
S'http://www.cnr.cn/newscenter/comment/latest/201406/t20140623_515708624.shtml'
p546
sg9
(lp547
V\u6d6a\u8d39
p548
aV\u5f53\u5730
p549
aV\u5b98\u5458
p550
aV\u957f\u5eca
p551
aV2.7
p552
aV\u5de5\u7a0b
p553
aV\u51b3\u7b56
p554
aV\u542c\u8bc1
p555
aV\u5f00\u53d1\u5546
p556
aV\u91cd\u5927
p557
asa(dp558
g5
S'\xa1\xb0\xc3\xf1\xd4\xb9\xb9\xa4\xb3\xcc\xa1\xb1\xc6\xf1\xc4\xdc\xb8\xb1\xca\xe9\xbc\xc7\xd2\xbb\xbf\xde\xc1\xcb\xca\xc2'
p559
sg7
S'http://www.cnr.cn/newscenter/comment/latest/201406/t20140616_515669886.shtml'
p560
sg9
(lp561
V\u6446\u8bbe
p562
aV\u5de5\u7a0b
p563
aV\u5931\u8bef
p564
aV\u826f\u5fc3\u53d1\u73b0
p565
aV\u51b3\u7b56
p566
aV\u62cd\u677f
p567
aV\u4e66\u8bb0
p568
aV\u75db\u54ed\u6d41\u6d95
p569
aV\u95ee\u9898
p570
aV\u6ca1\u6709
p571
asa(dp572
g5
S'\xc1\xbd\xb8\xf6\xd4\xc2\xb8\xc4\xc7\xa7\xc4\xea\xcd\xc1\xd4\xe1\xb7\xe7\xcb\xd7\xd0\xd0\xc2\xf0'
p573
sg7
S'http://www.cnr.cn/newscenter/comment/latest/201405/t20140526_515580504.shtml'
p574
sg9
(lp575
V\u6ba1\u846c
p576
aV\u5b89\u5e86
p577
aV\u5f3a\u63a8
p578
aV\u6539\u9769
p579
aV\u7fa4\u4f17\u8def\u7ebf
p580
aV\u8001\u4eba
p581
aV\u4ec5\u4ec5
p582
aV\u7a81\u7136
p583
aV\u5f53\u5730
p584
aV\u5b98\u5458
p585
asa(dp586
g5
S'\xc4\xe0\xca\xaf\xc1\xf7\xa1\xb0\xca\xc2\xc7\xe9\xb9\xfd\xc8\xa5\xc1\xcb\xa1\xb1\xa3\xac\xce\xca\xd4\xf0\xb2\xbb\xc4\xdc\xb9\xfd\xc8\xa5'
p587
sg7
S'http://www.cnr.cn/newscenter/comment/latest/201404/t20140422_515345832.shtml'
p588
sg9
(lp589
V\u95ee\u8d23
p590
aV\u6ce5\u77f3\u6d41
p591
aV\u5f53\u5730\u653f\u5e9c
p592
aV\u707e\u96be
p593
aV\u5de5\u7a0b
p594
aV\u8fc7\u53bb
p595
aV\u8c46\u8150\u6e23\u5de5\u7a0b
p596
aV\u5927\u575d
p597
aV\u5f53\u5730
p598
aV\u5355\u4f4d
p599
asasg63
g64
((lp600
g534
ag535
atp601
Rp602
sa(dp603
g2
(lp604
(dp605
g5
S'[\xc0\xcf\xb9\xf9\xd9\xa9\xc7\xf2]\xb1\xf0\xc1\xcb\xa3\xac\xd2\xc1\xc0\xca\xa3\xa1'
p606
sg7
S'http://www.cnr.cn/newscenter/comment/latest/201406/t20140626_515733619.shtml'
p607
sg9
(lp608
V\u4f0a\u6717\u961f
p609
aV\u4e9a\u6d32
p610
aV\u6ce2\u9ed1
p611
aV\u4f0a\u6717
p612
aV\u52b2\u65c5
p613
aV\u8db3\u7403
p614
aV\u897f\u4e9a
p615
aV\u961f\u5458
p616
aV\u97e9\u56fd\u961f
p617
aV\u4f0a\u6717\u4eba
p618
asa(dp619
g5
S'[\xc0\xcf\xb9\xf9\xd9\xa9\xc7\xf2]\xd1\xc7\xd6\xde\xc7\xf2\xb6\xd3\xbb\xb9\xd3\xd0\xa1\xb0\xcf\xb7\xa1\xb1\xc2\xf0\xa3\xbf'
p620
sg7
S'http://www.cnr.cn/newscenter/comment/latest/201406/t20140623_515713146.shtml'
p621
sg9
(lp622
V\u4f0a\u6717\u961f
p623
aV\u7403\u961f
p624
aV\u4e9a\u6d32
p625
aV\u5bf9\u9635
p626
aV\u6bd4\u8d5b
p627
aV\u5c0f\u7ec4
p628
aV\u53c2\u8d5b
p629
aV\u54e5\u4f26\u6bd4\u4e9a
p630
aV\u6682\u5c45
p631
aV\u672c\u5c4a
p632
asa(dp633
g5
S'[\xc0\xcf\xb9\xf9\xd9\xa9\xc7\xf2]\xd1\xc7\xd6\xde\xd3\xeb\xca\xc0\xbd\xe7\xd7\xe3\xc7\xf2\xb5\xc4\xb2\xee\xbe\xe0'
p634
sg7
S'http://www.cnr.cn/newscenter/comment/latest/201406/t20140622_515704522.shtml'
p635
sg9
(lp636
V\u4f0a\u6717\u961f
p637
aV\u4e9a\u6d32
p638
aV\u963f\u6839\u5ef7
p639
aV\u4f0a\u6717\u4eba
p640
aV\u4e16\u754c\u8db3\u575b
p641
aV\u8db3\u7403
p642
aV\u8865\u4f4d
p643
aV\u5f3a\u961f
p644
aV\u6885\u897f
p645
aV\u6bd4\u8d5b
p646
asasg63
g64
((lp647
g625
ag623
atp648
Rp649
sa(dp650
g2
(lp651
(dp652
g5
S'\xc9\xae\xc4\xe1\xcd\xac\xcb\xc2\xc8\xc7\xd6\xda\xc5\xad \xc7\xa8\xd6\xb7\xd2\xb2\xb2\xbb\xc4\xdc\xc2\xd2\xc0\xb4'
p653
sg7
S'http://www.cnr.cn/newscenter/comment/latest/201406/t20140620_515694390.shtml'
p654
sg9
(lp655
V\u9009\u5740
p656
aV\u5c3c\u59d1
p657
aV\u884c\u5bab
p658
aV\u540c\u5bfa
p659
aV\u5357\u6d77
p660
aV\u548c\u5c1a
p661
aV\u50e7\u5c3c
p662
aV\u663e\u9732\u51fa
p663
aV\u62c6\u8fc1
p664
aV\u7528\u5730
p665
asa(dp666
g5
S'\xc8\xc3\xa1\xb0\xc9\xae\xc4\xe1\xcd\xac\xcb\xc2\xa1\xb1\xa3\xac\xcb\xad\xd3\xd0\xa1\xb0\xbd\xa8\xb6\xa8\xc1\xcb\xa1\xb1\xb5\xc4\xc8\xa8\xc1\xa6'
p667
sg7
S'http://www.cnr.cn/newscenter/comment/latest/201406/t20140620_515694178.shtml'
p668
sg9
(lp669
V\u5f53\u5730\u653f\u5e9c
p670
aV\u9009\u5740
p671
aV\u884c\u5bab
p672
aV\u5357\u660c\u5e02
p673
aV\u5b97\u6559
p674
aV\u540c\u5bfa
p675
aV\u4e09\u5e99
p676
aV\u5357\u6d77
p677
aV\u53e6\u884c
p678
aV\u5357\u660c
p679
asasg63
g64
((lp680
g677
ag671
ag675
ag672
atp681
Rp682
sa(dp683
g2
(lp684
(dp685
g5
S'\xd7\xa1\xb7\xbf\xb9\xab\xbb\xfd\xbd\xf0\xbb\xb9\xd2\xaa\xd0\xd5\xa1\xb0\xd7\xa1\xa1\xb1'
p686
sg7
S'http://www.cnr.cn/newscenter/comment/latest/201406/t20140624_515717259.shtml'
p687
sg9
(lp688
V\u516c\u79ef\u91d1
p689
aV\u4f4e\u6536\u5165\u8005
p690
aV\u7f34\u5b58
p691
aV\u4e70\u623f
p692
aV\u7fa4\u4f53
p693
aV\u4f7f\u7528
p694
aV\u60e0\u53ca
p695
aV\u4e2d\u4f4e\u6536\u5165
p696
aV\u4f4f\u623f
p697
aV\u4f4e\u6536\u5165
p698
asa(dp699
g5
S'\xb9\xab\xbb\xfd\xbd\xf0\xb8\xc4\xb8\xef\xb9\xf3\xd4\xda\xa1\xb0\xb9\xab\xa1\xb1\xd7\xd6\xb5\xb1\xcd\xb7'
p700
sg7
S'http://www.cnr.cn/newscenter/comment/latest/201406/t20140623_515708742.shtml'
p701
sg9
(lp702
V\u516c\u79ef\u91d1
p703
aV\u63d0\u53d6
p704
aV\u6539\u9769
p705
aV\u516c\u5e73
p706
aV\u89c1\u62db\u62c6\u62db
p707
aV\u516c\u76ca
p708
aV\u516c\u4e49
p709
aV\u7f34\u5f97
p710
aV\u5171\u6d4e
p711
aV\u4e2d\u4f4e\u6536\u5165\u8005
p712
asa(dp713
g5
S'\xbd\xa8\xb8\xf6\xd7\xa1\xb7\xbf\xb1\xa3\xd5\xcf\xd0\xd4\xd2\xf8\xd0\xd0\xc8\xe7\xba\xce\xa3\xbf'
p714
sg7
S'http://www.cnr.cn/newscenter/comment/latest/201406/t20140618_515681643.shtml'
p715
sg9
(lp716
V\u516c\u79ef\u91d1
p717
aV\u63d0\u53d6
p718
aV\u4f4f\u623f
p719
aV\u804c\u5de5
p720
aV\u8d2d\u623f
p721
aV\u79df\u623f
p722
aV\u8d37\u6b3e
p723
aV\u653f\u7b56\u6027
p724
aV\u7f34\u5b58
p725
aV\u4fdd\u969c\u6027
p726
asa(dp727
g5
S'\xb2\xbb\xc4\xdc\xc8\xc3\xb9\xab\xbb\xfd\xbd\xf0\xd6\xc6\xb6\xc8\xd3\xeb\xcf\xd6\xca\xb5\xa1\xb0\xb4\xf2\xbc\xdc\xa1\xb1'
p728
sg7
S'http://www.cnr.cn/newscenter/comment/latest/201406/t20140616_515669710.shtml'
p729
sg9
(lp730
V\u516c\u79ef\u91d1
p731
aV\u63d0\u53d6
p732
aV\u653e\u5bbd
p733
aV\u4e2d\u4f4e\u6536\u5165\u8005
p734
aV\u5236\u5ea6
p735
aV\u6761\u4ef6
p736
aV\u6b66\u6c49
p737
aV\u4e70\u623f
p738
aV\u73b0\u5b9e\u60c5\u51b5
p739
aV1900
p740
asasg63
g688
sa(dp741
g2
(lp742
(dp743
g5
S'\xd2\xbb\xb6\xb7\xd7\xec\xa3\xac\xa1\xb0\xc7\xe5\xd0\xa1\xbb\xaa\xa1\xb1\xbe\xcd\xca\xe4\xc1\xcb'
p744
sg7
S'http://www.cnr.cn/newscenter/comment/latest/201406/t20140618_515681674.shtml'
p745
sg9
(lp746
V\u6e05\u534e
p747
aV\u6e05\u5c0f\u534e
p748
aV\u5bcc\u7f8e
p749
aV\u53d8\u767d
p750
aV\u5973\u751f
p751
aV\u6e05\u534e\u5927\u5b66
p752
aV\u5927\u5b66
p753
aV\u7167\u7247
p754
aV\u62db\u751f\u529e
p755
aV\u683c\u8c03
p756
asa(dp757
g5
S'\xb8\xdf\xd0\xa3\xc7\xf3\xb1\xe4\xb2\xbb\xc4\xdc\xd6\xb9\xd3\xda\xa1\xb0\xc2\xf4\xc3\xc8\xa1\xb1'
p758
sg7
S'http://www.cnr.cn/newscenter/comment/latest/201406/t20140618_515681606.shtml'
p759
sg9
(lp760
V\u9ad8\u6821
p761
aV\u5356\u840c
p762
aV\u516c\u4f17
p763
aV\u6e05\u534e
p764
aV\u4e0e\u65f6\u4ff1\u8fdb
p765
aV\u5b66\u672f
p766
aV\u62db\u751f
p767
aV\u6e05\u534e\u5927\u5b66
p768
aV\u5bcc\u7f8e
p769
aV\u6539\u9769
p770
asa(dp771
g5
S'\xa1\xb0\xc9\xcf\xc7\xe5\xbb\xaa\xb1\xe4\xb0\xd7\xb8\xbb\xc3\xc0\xa1\xb1\xa3\xac\xd2\xb2\xca\xc7\xd7\xd4\xce\xd2\xd0\xde\xc1\xb6'
p772
sg7
S'http://www.cnr.cn/newscenter/comment/latest/201406/t20140618_515681493.shtml'
p773
sg9
(lp774
V\u6e05\u534e
p775
aV\u53d1\u73b0\u81ea\u5df1
p776
aV\u5bcc\u7f8e
p777
aV\u53d8\u767d
p778
aV\u5973\u751f
p779
aV\u6211\u4eec
p780
aV\u5185\u5728\u7f8e
p781
aV\u6c14\u8d28
p782
aV\u7f8e\u56fe\u79c0
p783
aV\u5b66\u9738
p784
asasg63
g64
((lp785
g769
ag764
atp786
Rp787
sa(dp788
g2
(lp789
(dp790
g5
S'\xa1\xb0\xc5\xa9\xb4\xe5\xd1\xa7\xc9\xfa\xcc\xe6\xc1\xec\xb5\xbc\xba\xa2\xd7\xd3\xb8\xdf\xbf\xbc\xa1\xb1\xb5\xc4\xbf\xc9\xcc\xbe\xd3\xeb\xbf\xc9\xb1\xaf'
p791
sg7
S'http://www.cnr.cn/newscenter/comment/latest/201406/t20140626_515731687.shtml'
p792
sg9
(lp793
V\u66ff\u8003
p794
aV\u9ad8\u8003
p795
aV\u67aa\u624b
p796
aV\u519c\u6751
p797
aV\u519c\u5bb6\u5b50\u5f1f
p798
aV\u4ed6\u4eec
p799
aV\u9886\u5bfc
p800
aV\u9006\u88ad
p801
aV\u8ffd\u8d23
p802
aV\u6743\u94b1
p803
asa(dp804
g5
S'\xd5\xd2\xcc\xe6\xbf\xbc\xd0\xce\xcd\xac\xd7\xf6\xd4\xf4\xb2\xbb\xbf\xc9\xe5\xb6'
p805
sg7
S'http://www.cnr.cn/newscenter/comment/latest/201406/t20140618_515681941.shtml'
p806
sg9
(lp807
V\u66ff\u8003
p808
aV\u4f5c\u5f0a
p809
aV\u76d1\u8003
p810
aV\u9ad8\u8003
p811
aV\u62db\u529e
p812
aV\u7ec4\u7ec7\u8005
p813
aV\u672c\u8be5
p814
aV\u66dd\u5149
p815
aV\u8003\u751f
p816
aV\u94fe\u6761\u5f0f
p817
asa(dp818
g5
S'\xbf\xbc\xb3\xa1\xd6\xc8\xd0\xf2\xba\xce\xd2\xd4\xcf\xb5\xcd\xb3\xd0\xd4\xa1\xb0\xca\xa7\xca\xd8\xa1\xb1'
p819
sg7
S'http://www.cnr.cn/newscenter/comment/latest/201406/t20140618_515681557.shtml'
p820
sg9
(lp821
V\u66ff\u8003
p822
aV\u8003\u573a
p823
aV\u9ad8\u8003
p824
aV\u821e\u5f0a
p825
aV\u8003\u751f
p826
aV\u8003\u8bd5
p827
aV\u516c\u5e73
p828
aV\u4ed6\u4eec
p829
aV\u6127\u759a
p830
aV\u9053\u5fb7
p831
asa(dp832
g5
S'\xd1\xcf\xb2\xe9\xb2\xd9\xd7\xdd\xb8\xdf\xbf\xbc\xcc\xe6\xbf\xbc\xb5\xc4\xa1\xb0\xc4\xda\xb2\xbf\xc8\xcb\xa1\xb1'
p833
sg7
S'http://www.cnr.cn/newscenter/comment/latest/201406/t20140618_515681454.shtml'
p834
sg9
(lp835
V\u66ff\u8003
p836
aV\u9ad8\u8003
p837
aV\u66dd\u5149
p838
aV\u4e8b\u4ef6
p839
aV\u5185\u90e8
p840
aV\u76d1\u8003
p841
aV\u7ec4\u7ec7\u8005
p842
aV\u90e8\u95e8
p843
aV\u82b1\u94b1
p844
aV\u76d1\u7ba1
p845
asasg63
g64
((lp846
g811
ag808
atp847
Rp848
sa(dp849
g2
(lp850
(dp851
g5
S'\xa1\xb0\xc3\xe6\xc6\xa4\xd6\xa4\xa1\xb1\xa3\xac\xd5\xdb\xc9\xe4\xbb\xf9\xb2\xe3\xb8\xc4\xb8\xef\xd6\xae\xc4\xd1'
p852
sg7
S'http://www.cnr.cn/newscenter/comment/latest/201406/t20140617_515675942.shtml'
p853
sg9
(lp854
V\u9762\u76ae
p855
aV\u8ba4\u8bc1
p856
aV\u8d44\u8d28
p857
aV\u804c\u4e1a
p858
aV\u53d1\u8bc1
p859
aV\u653f\u5e9c
p860
aV\u8d44\u683c
p861
aV\u5730\u65b9
p862
aV\u9655\u897f
p863
aV\u6743\u529b
p864
asa(dp865
g5
S'\xb8\xb1\xca\xd0\xb3\xa4\xd6\xca\xd2\xc9\xa1\xb0\xc3\xe6\xc6\xa4\xd6\xa4\xa1\xb1\xca\xc7\xbf\xc9\xcf\xb2\xd0\xc5\xba\xc5'
p866
sg7
S'http://www.cnr.cn/newscenter/comment/latest/201406/t20140617_515675750.shtml'
p867
sg9
(lp868
V\u653f\u5e9c
p869
aV\u9762\u76ae
p870
aV\u7b80\u653f\u653e\u6743
p871
aV\u7ba1\u5f97
p872
aV\u8d44\u8d28
p873
aV\u8003\u8bc1
p874
aV\u6c88\u6d77\u658c
p875
aV\u804c\u4e1a
p876
aV\u5ba1\u6279
p877
aV\u5bbf\u8fc1
p878
asasg63
g64
((lp879
g870
ag869
ag876
ag873
atp880
Rp881
sa(dp882
g2
(lp883
(dp884
g5
S'\xa1\xb0\xd2\xa7\xc7\xa6\xb1\xca\xd2\xb2\xb3\xac\xc7\xa6\xa1\xb1\xa3\xac\xce\xde\xd6\xaa\xbb\xb9\xca\xc7\xce\xde\xca\xd3\xa3\xbf'
p885
sg7
S'http://www.cnr.cn/newscenter/comment/latest/201406/t20140616_515670351.shtml'
p886
sg9
(lp887
V\u8d85\u6807
p888
aV\u94c5\u7b14
p889
aV\u5927\u6d66
p890
aV\u6751\u6c11
p891
aV\u5065\u5eb7
p892
aV\u8003\u91cf
p893
aV\u653f\u7ee9
p894
aV\u6c61\u67d3
p895
aV\u4e00\u65b9
p896
aV\u5378\u8d23
p897
asa(dp898
g5
S'\xb9\xd8\xcd\xa3\xce\xdb\xc6\xf3\xce\xf0\xb3\xc9\xbd\xf0\xb2\xf5\xcd\xd1\xbf\xc7'
p899
sg7
S'http://www.cnr.cn/newscenter/comment/latest/201406/t20140616_515669904.shtml'
p900
sg9
(lp901
V\u6beb\u514b
p902
aV\u5343\u514b
p903
aV\u8d85\u6807
p904
aV\u8c03\u67e5
p905
aV\u68c0\u6d4b
p906
aV\u5927\u6d66
p907
aV300
p908
aV\u513f\u7ae5
p909
aV\u5173\u505c
p910
aV\u73af\u4fdd\u90e8\u95e8
p911
asa(dp912
g5
S'300\xb6\xf9\xcd\xaf\xd1\xaa\xc7\xa6\xb3\xac\xb1\xea\xa3\xac\xd2\xaa\xd1\xcf\xb2\xe9\xb9\xd9\xd4\xb1\xe4\xc2\xd6\xb0'
p913
sg7
S'http://www.cnr.cn/newscenter/comment/latest/201406/t20140616_515669705.shtml'
p914
sg9
(lp915
V\u6c61\u67d3
p916
aV\u8d85\u6807
p917
aV\u5b98\u5458
p918
aV\u5f53\u5730
p919
aV\u54ea\u4e9b
p920
aV\u513f\u7ae5
p921
aV\u9547\u957f
p922
aV\u5927\u6d66
p923
aV300
p924
aV\u4e8b\u4ef6
p925
asasg63
g64
((lp926
g907
ag904
atp927
Rp928
sa(dp929
g2
(lp930
(dp931
g5
S'\xc0\xfa\xca\xb7\xbc\xc7\xd2\xe4\xa3\xac\xbe\xcd\xca\xc7\xd2\xaa\xc7\xbf\xbb\xaf'
p932
sg7
S'http://www.cnr.cn/newscenter/comment/latest/201406/t20140612_515655128.shtml'
p933
sg9
(lp934
V\u6170\u5b89\u5987
p935
aV\u65e5\u519b
p936
aV\u8bb0\u5fc6
p937
aV\u65e5\u672c
p938
aV\u6863\u6848
p939
aV\u5386\u53f2
p940
aV\u6170\u5b89\u6240
p941
aV\u5357\u4eac\u5927\u5c60\u6740
p942
aV\u540d\u5f55
p943
aV\u4e16\u754c
p944
asa(dp945
g5
S'\xc8\xd5\xb1\xbe\xd1\xa1\xd4\xf1\xd2\xc5\xcd\xfc\xbe\xcd\xc8\xc3\xca\xc0\xbd\xe7\xb9\xb2\xcd\xac\xbc\xc7\xd2\xe4'
p946
sg7
S'http://www.cnr.cn/newscenter/comment/latest/201406/t20140612_515654927.shtml'
p947
sg9
(lp948
V\u6170\u5b89\u5987
p949
aV\u8bb0\u5fc6
p950
aV\u5386\u53f2
p951
aV\u4e16\u754c
p952
aV\u7f6a\u6076
p953
aV\u65e5\u519b
p954
aV\u4eba\u6743
p955
aV\u90a3\u6bb5
p956
aV\u4eba\u7c7b
p957
aV\u540d\u5f55
p958
asasg63
g64
((lp959
g951
ag952
ag949
ag958
ag950
ag954
atp960
Rp961
sa(dp962
g2
(lp963
(dp964
g5
S'\xbb\xdf\xbf\xee\xbe\xe8\xbd\xa8\xcb\xc2\xc3\xed\xc2\xed\xbc\xd7\xc4\xd1\xd1\xda\xb1\xbe\xd6\xca'
p965
sg7
S'http://www.cnr.cn/newscenter/comment/latest/201406/t20140612_515654958.shtml'
p966
sg9
(lp967
V\u9ec4\u5fd7\u5149
p968
aV100
p969
aV\u6b3e\u9879
p970
aV\u6148\u5584
p971
aV\u7d22\u53d6
p972
aV\u9e21\u9e23\u5bfa
p973
aV\u674e\u4e9a\u9e64
p974
aV\u5b8b\u7b56
p975
aV\u6cd5\u5f8b
p976
aV\u4eba\u8d22\u7269
p977
asa(dp978
g5
S'\xd4\xdf\xbf\xee\xbe\xe8\xb8\xf8\xcb\xc2\xc3\xed\xa3\xac\xce\xde\xb0\xad\xca\xdc\xbb\xdf\xd7\xef\xc8\xcf\xb6\xa8'
p979
sg7
S'http://www.cnr.cn/newscenter/comment/latest/201406/t20140612_515654856.shtml'
p980
sg9
(lp981
V\u9ec4\u5fd7\u5149
p982
aV\u53d7\u8d3f
p983
aV100
p984
aV\u884c\u4e3a\u4eba
p985
aV\u6350\u8d60
p986
aV\u674e\u4e9a\u9e64
p987
aV\u6b3e\u9879
p988
aV\u4e3b\u89c2
p989
aV\u53d7\u8d3f\u7f6a
p990
aV\u8d43\u6b3e
p991
asasg63
g64
((lp992
g988
ag984
ag982
ag987
atp993
Rp994
sa(dp995
g2
(lp996
(dp997
g5
S'\xbb\xa4\xcb\xcd\xd5\xfe\xc1\xee\xd7\xdf\xba\xc3\xa1\xb0\xd7\xee\xba\xf3\xd2\xbb\xb9\xab\xc0\xef\xa1\xb1'
p998
sg7
S'http://www.cnr.cn/newscenter/comment/latest/201406/t20140609_515639979.shtml'
p999
sg9
(lp1000
V\u653f\u4ee4
p1001
aV\u7763\u67e5
p1002
aV\u843d\u5b9e
p1003
aV\u653f\u7b56\u63aa\u65bd
p1004
aV\u519c\u673a
p1005
aV\u5e03\u544a
p1006
aV\u5f02\u5316
p1007
aV\u6743\u529b
p1008
aV\u60e0\u6c11
p1009
aV\u9009\u62e9\u6027
p1010
asa(dp1011
g5
S'\xb6\xbd\xb2\xec\xd5\xfe\xc1\xee\xc2\xe4\xca\xb5\xbb\xb9\xd0\xeb\xce\xca\xd4\xf0\xb8\xfa\xbd\xf8'
p1012
sg7
S'http://www.cnr.cn/newscenter/comment/latest/201406/t20140609_515639957.shtml'
p1013
sg9
(lp1014
V\u7763\u5bdf
p1015
aV\u653f\u4ee4
p1016
aV\u843d\u5b9e
p1017
aV\u8bc4\u4ef7
p1018
aV\u653f\u5e9c
p1019
aV\u56fd\u52a1\u9662
p1020
aV\u5730\u65b9
p1021
aV\u54ea\u4e9b
p1022
aV\u671f\u5f85
p1023
aV\u8fd9\u6b21
p1024
asa(dp1025
g5
S'\xca\xd0\xb3\xa4\xc3\xc7\xbe\xcd\xb8\xc3\xd7\xf6\xa1\xb0\xbb\xb7\xb1\xa3\xb0\xb5\xca\xc2\xa1\xb1'
p1026
sg7
S'http://www.cnr.cn/newscenter/comment/latest/201406/t20140605_515623076.shtml'
p1027
sg9
(lp1028
V\u6c61\u6c34
p1029
aV\u6697\u4e8b
p1030
aV\u5904\u7406\u5382
p1031
aV\u7ba1\u7f51
p1032
aV\u57ce\u5e02
p1033
aV\u6c61\u6c34\u5904\u7406
p1034
aV\u5730\u65b9
p1035
aV\u6cbb\u6c61
p1036
aV\u5e02\u957f
p1037
aV\u653f\u5e9c
p1038
asa(dp1039
g5
S'\xbe\xaf\xcc\xe8\xa1\xb0\xb4\xf3\xc4\xd6\xb4\xf3\xbd\xe2\xbe\xf6\xa1\xb1\xb4\xdf\xc9\xfa\xbc\xab\xb6\xcb\xb1\xed\xb4\xef'
p1040
sg7
S'http://www.cnr.cn/newscenter/comment/latest/201405/t20140513_515495034.shtml'
p1041
sg9
(lp1042
V\u5783\u573e\u711a\u70e7
p1043
aV\u7fa4\u4f17
p1044
aV\u653f\u5e9c
p1045
aV\u89e3\u51b3
p1046
aV\u6c11\u4f17
p1047
aV\u66b4\u529b
p1048
aV\u5927\u95f9
p1049
aV\u5730\u65b9
p1050
aV\u4f59\u676d\u533a
p1051
aV\u6cd5\u6cbb
p1052
asa(dp1053
g5
S'\xd5\xfe\xb8\xae\xb3\xf6\xca\xd6\xbe\xc8\xca\xd0,\xce\xf1\xb1\xd8\xd7\xf0\xd6\xd8\xc3\xf1\xd2\xe2'
p1054
sg7
S'http://www.cnr.cn/newscenter/comment/latest/201405/t20140507_515452754.shtml'
p1055
sg9
(lp1056
V\u6551\u5e02
p1057
aV\u5730\u65b9
p1058
aV\u5c3a\u5ea6
p1059
aV\u57ce\u5e02
p1060
aV\u8206\u8bba
p1061
aV\u602a\u62db
p1062
aV\u5947\u62db
p1063
aV\u697c\u5e02
p1064
aV\u653f\u5e9c
p1065
aV\u94dc\u9675
p1066
asa(dp1067
g5
S'\xa1\xb0\xb2\xbb\xca\xdc\xc0\xed\xd4\xbd\xbc\xb6\xc9\xcf\xb7\xc3\xa1\xb1\xd2\xaa\xd3\xd0\xbb\xf9\xb2\xe3\xc9\xc6\xd6\xce\xd7\xf6\xb1\xa3\xd5\xcf'
p1068
sg7
S'http://www.cnr.cn/newscenter/comment/latest/201404/t20140424_515363306.shtml'
p1069
sg9
(lp1070
V\u8d8a\u7ea7
p1071
aV\u4e0a\u8bbf
p1072
aV\u4fe1\u8bbf
p1073
aV\u7fa4\u4f17
p1074
aV\u57fa\u5c42\u7ec4\u7ec7
p1075
aV\u673a\u5173
p1076
aV\u5730\u65b9
p1077
aV\u653f\u5e9c
p1078
aV\u57fa\u5c42
p1079
aV\u53d7\u7406
p1080
asa(dp1081
g5
S'\xcb\xc9\xb0\xf3\xb5\xd8\xb7\xbd\xd5\xae \xb8\xfc\xd0\xe8\xc7\xbf\xbb\xaf\xd4\xa4\xcb\xe3\xb7\xa8\xb8\xd5\xd0\xd4'
p1082
sg7
S'http://www.cnr.cn/newscenter/comment/latest/201404/t20140423_515354845.shtml'
p1083
sg9
(lp1084
V\u9884\u7b97
p1085
aV\u9884\u7b97\u6cd5
p1086
aV\u5730\u65b9
p1087
aV\u4e09\u5ba1
p1088
aV\u653f\u5e9c
p1089
aV\u5ba1\u67e5
p1090
aV\u677e\u7ed1
p1091
aV\u91d1\u878d\u98ce\u9669
p1092
aV\u4fdd\u8bc1
p1093
aV\u76d1\u7ba1
p1094
asasg63
g64
((lp1095
g1016
ag1017
atp1096
Rp1097
sa(dp1098
g2
(lp1099
(dp1100
g5
S'[\xc0\xcf\xb9\xf9\xd9\xa9\xc7\xf2]\xbd\xe1\xca\xf8\xc1\xcb\xa3\xac\xb6\xb7\xc5\xa3\xca\xbf\xb5\xc4\xa1\xb0\xb6\xb7\xc5\xa3\xd6\xae\xc2\xc3\xa1\xb1'
p1101
sg7
S'http://www.cnr.cn/newscenter/comment/latest/201406/t20140619_515688631.shtml'
p1102
sg9
(lp1103
V\u4f20\u63a7
p1104
aV\u5df4\u8428
p1105
aV\u8db3\u7403
p1106
aV\u897f\u73ed\u7259\u961f
p1107
aV\u676f\u8d5b
p1108
aV\u4ff1\u4e50\u90e8
p1109
aV\u6bd4\u8d5b
p1110
aV\u897f\u73ed\u7259
p1111
aV\u8f93\u5728
p1112
aV\u667a\u5229\u961f
p1113
asa(dp1114
g5
S'\xca\xc0\xbd\xe7\xb1\xad\xa3\xac\xc8\xc3\xd5\xbd\xd5\xf9\xd7\xdf\xbf\xaa'
p1115
sg7
S'http://www.cnr.cn/newscenter/comment/latest/201406/t20140611_515649668.shtml'
p1116
sg9
(lp1117
V\u8db3\u7403
p1118
aV\u897f\u5fb7
p1119
aV\u6218\u4e89
p1120
aV\u8377\u5170\u961f
p1121
aV\u56fd\u5bb6
p1122
aV\u4e16\u754c\u676f
p1123
aV\u6c11\u65cf\u4e3b\u4e49
p1124
aV\u4e16\u754c\u676f\u8d5b
p1125
aV\u4ff1\u4e50\u90e8
p1126
aV\u5bf9\u6297
p1127
asa(dp1128
g5
S'\xb0\xa2\xc0\xef12\xd2\xda\xd2\xaa\xcc\xdf\xb6\xe0\xb4\xf3\xb5\xc4\xc7\xf2'
p1129
sg7
S'http://www.cnr.cn/newscenter/comment/latest/201406/t20140606_515628541.shtml'
p1130
sg9
(lp1131
V\u6052\u5927
p1132
aV\u8db3\u7403
p1133
aV\u963f\u91cc
p1134
aV\u4ff1\u4e50\u90e8
p1135
aV\u4ea4\u6613
p1136
aV\u5bf9\u6052\u5927
p1137
aV12
p1138
aV\u8fd9\u7b14
p1139
aV\u51f6\u608d
p1140
aV\u5e7f\u5dde
p1141
asa(dp1142
g5
S'\xb0\xa2\xc0\xef\xc8\xeb\xb9\xc9\xba\xe3\xb4\xf3\xa3\xac\xd7\xe3\xc7\xf2\xd6\xbb\xca\xc7\xd3\xc9\xcd\xb7'
p1143
sg7
S'http://www.cnr.cn/newscenter/comment/latest/201406/t20140606_515628481.shtml'
p1144
sg9
(lp1145
V\u6052\u5927
p1146
aV\u5408\u4f5c
p1147
aV\u9a6c\u4e91
p1148
aV\u7eff\u57ce
p1149
aV\u8db3\u7403
p1150
aV\u9a6c\u5316\u817e
p1151
aV\u5b8b\u536b\u5e73
p1152
aV\u963f\u91cc
p1153
aV\u771f\u6b63
p1154
aV\u4ff1\u4e50\u90e8
p1155
asa(dp1156
g5
S'\xb4\xe0\xc8\xf5\xb5\xc4\xd7\xe3\xc7\xf2\xd3\xdf\xc2\xdb\xba\xce\xca\xb1\xc4\xdc\xb3\xc9\xca\xec\xa3\xbf'
p1157
sg7
S'http://www.cnr.cn/newscenter/comment/latest/201405/t20140507_515454064.shtml'
p1158
sg9
(lp1159
V\u8db3\u7403
p1160
aV\u6052\u5927
p1161
aV\u53ef\u5708\u53ef\u70b9
p1162
aV\u8206\u8bba
p1163
aV\u6a31\u82b1
p1164
aV\u5927\u962a
p1165
aV\u624e\u5207
p1166
aV\u7f57\u5c3c
p1167
aV\u6bd4\u8d5b
p1168
aV\u56fd\u8db3
p1169
asasg63
g64
((lp1170
g1118
ag1126
atp1171
Rp1172
sa(dp1173
g2
(lp1174
(dp1175
g5
S'\xb8\xdf\xbf\xbc\xbc\xbe\xc8\xe7\xba\xce\xc8\xc3\xb4\xf3\xc2\xe8\xb2\xbb\xcc\xf8\xb9\xe3\xb3\xa1\xce\xe8'
p1176
sg7
S'http://www.cnr.cn/newscenter/comment/latest/201406/t20140605_515623567.shtml'
p1177
sg9
(lp1178
V\u6743\u76ca
p1179
aV\u9ad8\u8003
p1180
aV\u5e7f\u573a
p1181
aV\u5927\u5988
p1182
aV\u8001\u4eba
p1183
aV\u5b69\u5b50
p1184
aV300
p1185
aV\u5a31\u4e50
p1186
aV\u516c\u5fb7
p1187
aV\u5730\u65b9
p1188
asa(dp1189
g5
S'\xb9\xe3\xb3\xa1\xce\xe8\xbd\xb5\xd2\xf4\xc1\xbf\xd7\xee\xba\xc3\xd1\xf8\xb3\xc9\xcf\xb0\xb9\xdf'
p1190
sg7
S'http://www.cnr.cn/newscenter/comment/latest/201406/t20140605_515623206.shtml'
p1191
sg9
(lp1192
V\u5927\u5988
p1193
aV\u5e7f\u573a
p1194
aV\u9ad8\u8003
p1195
aV\u665a\u81ea\u4e60
p1196
aV\u6270\u6c11
p1197
aV\u5065\u8eab
p1198
aV\u566a\u97f3
p1199
aV\u97f3\u91cf
p1200
aV\u5b69\u5b50
p1201
aV\u57ce\u7ba1
p1202
asa(dp1203
g5
S'\xb9\xe3\xb3\xa1\xce\xe8\xd5\xbc\xb5\xd8\xcc\xfa\xd5\xbe\xbb\xa5\xc8\xc3\xb2\xc5\xc4\xdc\xc6\xc6\xbd\xa9\xbe\xd6'
p1204
sg7
S'http://www.cnr.cn/newscenter/comment/latest/201406/t20140604_515617822.shtml'
p1205
sg9
(lp1206
V\u5e7f\u573a
p1207
aV\u7279\u6743
p1208
aV\u533b\u62a4\u4eba\u5458
p1209
aV\u4e00\u540d
p1210
aV\u5065\u8eab
p1211
aV\u5730\u94c1
p1212
aV\u62a4\u58eb
p1213
aV\u6e34\u671b
p1214
aV\u5bb6\u5c5e
p1215
aV\u5927\u5988
p1216
asasg63
g64
((lp1217
g1194
ag1193
atp1218
Rp1219
sa(dp1220
g2
(lp1221
(dp1222
g5
S'\xce\xf7\xb9\xcf\xb0\xec\xa3\xac\xb2\xbb\xd4\xda\xd3\xda\xb9\xdc\xb6\xf8\xd4\xda\xd3\xda\xb0\xec'
p1223
sg7
S'http://www.cnr.cn/newscenter/comment/latest/201406/t20140605_515623258.shtml'
p1224
sg9
(lp1225
V\u897f\u74dc
p1226
aV\u74dc\u519c
p1227
aV\u5356\u74dc
p1228
aV\u5fae\u535a
p1229
aV\u504f\u89c1
p1230
aV\u76d6\u7ae0
p1231
aV\u8fdb\u57ce
p1232
aV\u90d1\u5dde
p1233
aV\u7aef\u67b6\u5b50
p1234
aV\u5728\u4e8e
p1235
asasg63
g64
((lp1236
V\u76d6\u7ae0
p1237
aV\u7aef\u67b6\u5b50
p1238
aV\u897f\u74dc
p1239
aV\u74dc\u519c
p1240
aV\u504f\u89c1
p1241
aV\u90d1\u5dde
p1242
aV\u5fae\u535a
p1243
aV\u5728\u4e8e
p1244
aV\u5356\u74dc
p1245
aV\u8fdb\u57ce
p1246
atp1247
Rp1248
sa(dp1249
g2
(lp1250
(dp1251
g5
S'\xa1\xb0\xc2\xf3\xb2\xe7\xcf\xde\xb8\xdf\xa1\xb1\xd0\xc2\xd5\xfe\xd2\xb2\xd0\xed\xbf\xb4\xc6\xf0\xc0\xb4\xba\xdc\xc3\xc0'
p1252
sg7
S'http://www.cnr.cn/newscenter/comment/latest/201406/t20140604_515618199.shtml'
p1253
sg9
(lp1254
V\u79f8\u79c6
p1255
aV\u9650\u9ad8
p1256
aV\u9ea6\u832c
p1257
aV\u711a\u70e7
p1258
aV\u519c\u6237
p1259
aV\u7981\u70e7
p1260
aV\u65b0\u653f
p1261
aV10
p1262
aV\u653f\u5e9c\u90e8\u95e8
p1263
aV\u592a\u548c\u53bf
p1264
asa(dp1265
g5
S'\xa1\xb0\xc2\xf3\xb2\xe7\xcf\xde\xb8\xdf\xa1\xb1\xca\xc7\xb2\xbb\xbf\xbf\xc6\xd7\xb5\xc4\xbd\xfb\xc9\xd5\xc1\xee'
p1266
sg7
S'http://www.cnr.cn/newscenter/comment/latest/201406/t20140604_515617774.shtml'
p1267
sg9
(lp1268
V\u79f8\u79c6
p1269
aV\u7981\u70e7
p1270
aV\u9650\u9ad8
p1271
aV10
p1272
aV\u519c\u6237
p1273
aV\u9ea6\u832c
p1274
aV\u6536\u5272
p1275
aV\u592a\u548c\u53bf
p1276
aV\u711a\u70e7
p1277
aV\u8b6c\u5982
p1278
asasg63
g64
((lp1279
g1272
ag1270
ag1273
ag1271
ag1277
ag1269
ag1274
ag1276
atp1280
Rp1281
sa(dp1282
g2
(lp1283
(dp1284
g5
S'\xd6\xa7\xb3\xd6\xd2\xd4\xc8\xcb\xb2\xe9\xb7\xbf\xd0\xe8\xc5\xe4\xcc\xd7\xd6\xc6\xb6\xc8\xcd\xc6\xbd\xf8'
p1285
sg7
S'http://www.cnr.cn/newscenter/comment/latest/201406/t20140603_515613118.shtml'
p1286
sg9
(lp1287
V\u5b98\u5458
p1288
aV\u67e5\u8be2
p1289
aV\u623f\u4ea7
p1290
aV\u623f\u4ea7\u4fe1\u606f
p1291
aV\u516c\u4f17
p1292
aV\u8054\u7f51
p1293
aV\u77e5\u60c5\u6743
p1294
aV\u4e2a\u4eba\u9690\u79c1
p1295
aV\u9690\u79c1\u6743
p1296
aV\u7d27\u5f20
p1297
asa(dp1298
g5
S'\xd2\xd4\xc8\xcb\xb2\xe9\xb7\xbf\xa3\xac\xc8\xe7\xba\xce\xb3\xc9\xce\xaa\xb7\xb4\xb8\xaf\xc0\xfb\xc6\xf7'
p1299
sg7
S'http://www.cnr.cn/newscenter/comment/latest/201406/t20140603_515612905.shtml'
p1300
sg9
(lp1301
V\u767b\u8bb0
p1302
aV\u67e5\u623f
p1303
aV\u4ee5\u4eba
p1304
aV\u4e0d\u52a8\u4ea7
p1305
aV\u4f9d\u6cd5
p1306
aV\u5b98\u5458
p1307
aV\u7533\u62a5
p1308
aV\u4fe1\u606f
p1309
aV\u67e5\u8be2
p1310
aV\u8d22\u4ea7
p1311
asa(dp1312
g5
S'\xa1\xb0\xd2\xd4\xc8\xcb\xb2\xe9\xb7\xbf\xa1\xb1\xd6\xfa\xc1\xa6\xb7\xb4\xb8\xaf\xbd\xab\xc8\xe7\xba\xce\xca\xb5\xcf\xd6\xa3\xbf'
p1313
sg7
S'http://www.cnr.cn/newscenter/comment/latest/201406/t20140603_515612245.shtml'
p1314
sg9
(lp1315
V\u4e0d\u52a8\u4ea7
p1316
aV\u767b\u8bb0
p1317
aV\u67e5\u623f
p1318
aV\u4ee5\u4eba
p1319
aV\u67e5\u8be2
p1320
aV\u6761\u4f8b
p1321
aV\u4fe1\u606f
p1322
aV\u623f\u4ea7\u4fe1\u606f
p1323
aV\u7edf\u4e00
p1324
aV\u5b98\u5458
p1325
asa(dp1326
g5
S'\xbb\xa7\xbf\xda\xa1\xb0\xc4\xaa\xc3\xfb\xd7\xa2\xcf\xfa\xa1\xb1\xd6\xb5\xb5\xc3\xd7\xb7\xce\xca'
p1327
sg7
S'http://www.cnr.cn/newscenter/comment/latest/201404/t20140428_515387301.shtml'
p1328
sg9
(lp1329
V\u6237\u53e3
p1330
aV\u6ce8\u9500
p1331
aV\u516c\u6c11
p1332
aV\u8096\u5efa\u9e4f
p1333
aV\u9e7f\u9091\u53bf
p1334
aV\u6d3e\u51fa\u6240
p1335
aV\u975e\u6cd5\u884c\u4e3a
p1336
aV\u767b\u8bb0
p1337
aV\u6b63\u5e38
p1338
aV\u4fe1\u606f
p1339
asasg63
g64
((lp1340
g1307
ag1310
atp1341
Rp1342
sa(dp1343
g2
(lp1344
(dp1345
g5
S'\xbb\xe3\xb7\xe16\xd4\xc2PMI\xb1\xed\xc3\xf7\xa1\xb0\xce\xa2\xb4\xcc\xbc\xa4\xa1\xb1\xd2\xd1\xbc\xfb\xd0\xa7'
p1346
sg7
S'http://www.cnr.cn/newscenter/comment/latest/201406/t20140625_515723967.shtml'
p1347
sg9
(lp1348
V\u964d\u51c6
p1349
aVPMI
p1350
aV\u4e2d\u56fd
p1351
aV\u5236\u9020\u4e1a
p1352
aV\u7ecf\u6d4e
p1353
aV\u6c47\u4e30
p1354
aV\u5b9a\u5411
p1355
aV\u523a\u6fc0
p1356
aV\u653e\u7f13
p1357
aV\u6269\u5927
p1358
asa(dp1359
g5
S'\xbd\xb5\xd7\xbc\xd0\xa1\xb7\xf9\xc0\xa9\xce\xa7\xce\xaa\xc8\xfd\xbc\xbe\xb6\xc8\xbe\xad\xbc\xc3\xd4\xa4\xa1\xb0\xb3\xe4\xd1\xaa\xa1\xb1'
p1360
sg7
S'http://www.cnr.cn/newscenter/comment/latest/201406/t20140617_515675617.shtml'
p1361
sg9
(lp1362
V\u964d\u51c6
p1363
aV\u5b9a\u5411
p1364
aV\u6708\u4efd
p1365
aV\u5916\u8d38
p1366
aV\u4f01\u7a33
p1367
aV\u6295\u8d44
p1368
aV\u7ecf\u6d4e\u8fd0\u884c
p1369
aV\u80a1\u4efd\u5236
p1370
aV\u592e\u884c
p1371
aV\u7ecf\u6d4e
p1372
asa(dp1373
g5
S'\xb6\xa8\xcf\xf2\xbd\xb5\xd7\xbc\xa3\xba\xbd\xe9\xd3\xda\xb1\xbb\xb6\xaf\xd3\xa6\xb8\xb6\xd3\xeb\xd6\xf7\xb6\xaf\xb5\xf7\xd5\xfb\xd6\xae\xbc\xe4'
p1374
sg7
S'http://www.cnr.cn/newscenter/comment/latest/201406/t20140617_515675523.shtml'
p1375
sg9
(lp1376
V\u964d\u51c6
p1377
aV\u5b9a\u5411
p1378
aV\u80a1\u4efd\u5236
p1379
aV\u7ecf\u6d4e
p1380
aV\u6dd8\u6c70
p1381
aV\u62bd\u7d27
p1382
aV\u4ea7\u80fd
p1383
aV\u8d27\u5e01\u653f\u7b56
p1384
aV\u8fc7\u5269
p1385
aV\u7b2c\u4e8c\u6b21
p1386
asa(dp1387
g5
S'\xb6\xa8\xcf\xf2\xbd\xb5\xd7\xbc\xb5\xc4\xd7\xc5\xc1\xa6\xb5\xe3\xd4\xda\xca\xe8\xcd\xa8\xa1\xb0\xbd\xf0\xc8\xda\xd1\xaa\xc2\xf6\xa1\xb1'
p1388
sg7
S'http://www.cnr.cn/newscenter/comment/latest/201406/t20140603_515612240.shtml'
p1389
sg9
(lp1390
V\u964d\u51c6
p1391
aV\u5b9a\u5411
p1392
aV\u8840\u8109
p1393
aV\u5c0f\u5fae
p1394
aV\u91d1\u878d
p1395
aV\u5b9e\u4f53
p1396
aV\u4f01\u4e1a
p1397
aV\u7ecf\u6d4e\u8fd0\u884c
p1398
aVPMI
p1399
aV\u758f\u901a
p1400
asa(dp1401
g5
S'\xa1\xb0\xb6\xa8\xcf\xf2\xbd\xb5\xd7\xbc\xa1\xb1\xb5\xc4\xb1\xb3\xba\xf3\xca\xc7\xd7\xca\xd4\xb4\xb4\xed\xc5\xe4'
p1402
sg7
S'http://www.cnr.cn/newscenter/comment/latest/201406/t20140603_515612207.shtml'
p1403
sg9
(lp1404
V\u964d\u51c6
p1405
aV\u5c0f\u5fae
p1406
aV\u56fd\u6709
p1407
aV\u5c0f\u884c
p1408
aV\u94f6\u884c
p1409
aV\u5b58\u51c6
p1410
aV\u6295\u5411
p1411
aV\u4f01\u4e1a
p1412
aV\u5b9a\u5411
p1413
aV\u5730\u65b9
p1414
asasg63
g64
((lp1415
g1363
ag1364
atp1416
Rp1417
sa(dp1418
g2
(lp1419
(dp1420
g5
S'\xbd\xd3\xc1\xa6\xd5\xbe\xb8\xda\xc4\xd1\xc6\xc6\xa1\xb0\xd6\xd0\xb9\xfa\xca\xbd\xb9\xfd\xc2\xed\xc2\xb7\xa1\xb1'
p1421
sg7
S'http://www.cnr.cn/newscenter/comment/latest/201406/t20140603_515612321.shtml'
p1422
sg9
(lp1423
V\u95ef\u7ea2\u706f
p1424
aV\u884c\u4eba
p1425
aV\u6591\u9a6c\u7ebf
p1426
aV\u9a6c\u8def
p1427
aV\u673a\u52a8\u8f66
p1428
aV\u73b0\u8c61
p1429
aV\u63aa\u65bd
p1430
aV\u6267\u6cd5
p1431
aV\u6c49\u9633
p1432
aV\u7c7b\u4f3c
p1433
asa(dp1434
g5
S'\xd6\xce\xc0\xed\xb4\xb3\xba\xec\xb5\xc6\xa3\xac\xd4\xf5\xc4\xdc\xcc\xf4\xc6\xf0\xc3\xf1\xd6\xda\xa1\xb0\xbb\xa5\xb6\xb7\xa1\xb1'
p1435
sg7
S'http://www.cnr.cn/newscenter/comment/latest/201406/t20140603_515612137.shtml'
p1436
sg9
(lp1437
V\u6267\u6cd5
p1438
aV\u8fdd\u6cd5\u8005
p1439
aV\u8fdd\u6cd5\u884c\u4e3a
p1440
aV\u63a5\u529b
p1441
aV\u6c49\u9633
p1442
aV\u884c\u4eba
p1443
aV\u65b9\u5f0f
p1444
aV\u7ad9\u5c97
p1445
aV\u95ef\u7ea2\u706f
p1446
aV\u8fdd\u6cd5
p1447
asa(dp1448
g5
S'\xbe\xaf\xb2\xec\xbd\xf4\xbc\xb1\xd6\xb4\xb7\xa8\xd3\xa6\xb9\xcb\xbc\xb0\xd5\xfd\xb5\xb1\xd0\xd4'
p1449
sg7
S'http://www.cnr.cn/newscenter/comment/latest/201405/t20140527_515586436.shtml'
p1450
sg9
(lp1451
V\u6267\u6cd5
p1452
aV\u7279\u8b66
p1453
aV\u8ffd\u6355
p1454
aV\u4e24\u6b7b
p1455
aV\u4e00\u4f24
p1456
aV\u649e\u51fb
p1457
aV\u8087\u4e8b\u8f66
p1458
aV\u884c\u4eba
p1459
aV\u4e0d\u76f8\u79f0
p1460
aV\u540e\u679c
p1461
asasg63
g64
((lp1462
g1438
ag1443
atp1463
Rp1464
sa(dp1465
g2
(lp1466
(dp1467
g5
S'\xb2\xbb\xb3\xcb\xc9\xdd\xbb\xaa\xb3\xb5\xb9\xd9\xd4\xb1\xb2\xc5\xd3\xd0\xc3\xe6\xd7\xd3'
p1468
sg7
S'http://www.cnr.cn/newscenter/comment/latest/201405/t20140529_515596871.shtml'
p1469
sg9
(lp1470
V\u81ea\u4e3b
p1471
aV\u54c1\u724c
p1472
aV\u5b98\u8f66
p1473
aV\u5962\u534e
p1474
aV\u6211\u56fd
p1475
aV\u9762\u5b50
p1476
aV\u516c\u52a1\u7528\u8f66
p1477
aV\u516c\u52a1\u8f66
p1478
aV\u91c7\u8d2d
p1479
aV\u6c7d\u8f66\u4ea7\u4e1a
p1480
asasg63
g64
((lp1481
V\u6c7d\u8f66\u4ea7\u4e1a
p1482
aV\u81ea\u4e3b
p1483
aV\u5b98\u8f66
p1484
aV\u5962\u534e
p1485
aV\u6211\u56fd
p1486
aV\u54c1\u724c
p1487
aV\u9762\u5b50
p1488
aV\u516c\u52a1\u7528\u8f66
p1489
aV\u91c7\u8d2d
p1490
aV\u516c\u52a1\u8f66
p1491
atp1492
Rp1493
sa(dp1494
g2
(lp1495
(dp1496
g5
S'\xa1\xb0\xb7\xc7\xba\xbd\xbf\xd5\xb9\xab\xcb\xbe\xd4\xad\xd2\xf2\xa1\xb1\xc8\xe7\xba\xce\xc8\xa1\xd0\xc5\xd3\xda\xb3\xcb\xbf\xcd'
p1497
sg7
S'http://www.cnr.cn/newscenter/comment/latest/201405/t20140528_515591832.shtml'
p1498
sg9
(lp1499
V\u822a\u7a7a\u516c\u53f8
p1500
aV\u5ef6\u8bef
p1501
aV\u65c5\u5ba2
p1502
aV\u822a\u73ed
p1503
aV\u539f\u56e0
p1504
aV\u516c\u5f00
p1505
aV\u4fe1\u606f
p1506
aV\u516c\u4f17
p1507
aV\u6c11\u822a\u5c40
p1508
aV\u900f\u660e
p1509
asa(dp1510
g5
S'\xba\xbd\xb0\xe0\xd5\xfd\xb3\xa3\xb9\xdc\xc0\xed\xd0\xc2\xb9\xe6\xce\xaa\xba\xce\xd2\xfd\xc0\xb4\xcd\xc2\xb2\xdb\xa3\xbf'
p1511
sg7
S'http://www.cnr.cn/newscenter/comment/latest/201405/t20140528_515591816.shtml'
p1512
sg9
(lp1513
V\u822a\u73ed
p1514
aV\u822a\u7a7a\u516c\u53f8
p1515
aV\u665a\u70b9
p1516
aV\u539f\u56e0
p1517
aV\u4e58\u5ba2
p1518
aV\u5ef6\u8bef
p1519
aV\u7a7a\u7ba1
p1520
aV\u65c5\u5ba2
p1521
aV\u6c11\u822a\u5c40
p1522
aV\u5982\u679c
p1523
asasg63
g64
((lp1524
g1522
ag1521
ag1514
ag1519
ag1515
ag1517
atp1525
Rp1526
sa(dp1527
g2
(lp1528
(dp1529
g5
S'\xb9\xd8\xd3\xda\xa1\xb0\xb3\xc7\xb9\xdc\xd6\xbe\xd4\xb8\xd5\xdf\xa1\xb1\xa3\xac\xbb\xb9\xc7\xeb\xb0\xcd\xd6\xd0\xcf\xb8\xcb\xb5\xcb\xb5'
p1530
sg7
S'http://www.cnr.cn/newscenter/comment/latest/201405/t20140527_515586967.shtml'
p1531
sg9
(lp1532
V\u57ce\u7ba1\u5c40
p1533
aV\u4faf\u98de\u752b
p1534
aV\u5fd7\u613f\u8005
p1535
aV\u526f\u961f\u957f
p1536
aV\u534f\u8bae
p1537
aV\u57ce\u7ba1
p1538
aV\u4e2d\u961f\u957f
p1539
aV\u56de\u5e94
p1540
aV\u8be5\u5c40
p1541
aV\u516c\u4f17
p1542
asa(dp1543
g5
S'\xb0\xcd\xd6\xd0\xb3\xc7\xb9\xdc\xd3\xd0\xb6\xe0\xc9\xd9\xa1\xb0\xd6\xbe\xd4\xb8\xd5\xdf\xa1\xb1'
p1544
sg7
S'http://www.cnr.cn/newscenter/comment/latest/201405/t20140527_515586301.shtml'
p1545
sg9
(lp1546
V\u5fd7\u613f\u8005
p1547
aV\u4e2d\u961f\u957f
p1548
aV\u57ce\u7ba1\u5c40
p1549
aV\u5df4\u4e2d
p1550
aV\u57ce\u7ba1
p1551
aV\u4faf\u98de\u752b
p1552
aV\u5df4\u4e2d\u5e02
p1553
aV\u4efb\u547d
p1554
aV\u9a7e\u9a76\u5458
p1555
aV\u6267\u6cd5\u6743
p1556
asasg63
g64
((lp1557
g1547
ag1551
ag1549
ag1548
ag1552
atp1558
Rp1559
sa(dp1560
g2
(lp1561
(dp1562
g5
S'\xce\xd2\xc3\xc7\xd0\xe8\xd2\xaa\xc4\xc7\xc3\xb4\xb6\xe0\xc2\xed\xc0\xad\xcb\xc9\xc2\xf0'
p1563
sg7
S'http://www.cnr.cn/newscenter/comment/latest/201405/t20140527_515586399.shtml'
p1564
sg9
(lp1565
V\u9a6c\u62c9\u677e
p1566
aV\u9a6c\u62c9\u677e\u8d5b
p1567
aV\u6bd4\u8d5b
p1568
aV\u4f53\u80b2
p1569
aV\u534a\u7a0b
p1570
aV\u62a2\u6551\u65e0\u6548
p1571
aV\u6606\u660e
p1572
aV\u9009\u624b
p1573
aV\u5168\u6c11
p1574
aV10
p1575
asa(dp1576
g5
S'\xa1\xb0\xc8\xb1\xcb\xae\xa1\xb1\xb5\xc4\xc2\xed\xc0\xad\xcb\xc9\xc6\xf1\xc4\xdc\xb2\xbb\xce\xa3\xcf\xd5'
p1577
sg7
S'http://www.cnr.cn/newscenter/comment/latest/201405/t20140527_515586296.shtml'
p1578
sg9
(lp1579
V\u9a6c\u62c9\u677e
p1580
aV\u731d\u6b7b
p1581
aV\u9009\u624b
p1582
aV\u9a6c\u62c9\u677e\u8d5b
p1583
aV\u9879\u76ee
p1584
aV\u4e1a\u4f59\u9009\u624b
p1585
aV\u5076\u53d1\u4e8b\u4ef6
p1586
aV\u534a\u7a0b
p1587
aV2014
p1588
aV10
p1589
asasg63
g64
((lp1590
g1589
ag1582
ag1583
ag1580
ag1587
atp1591
Rp1592
sa(dp1593
g2
(lp1594
(dp1595
g5
S'\xb9\xc5\xb3\xc7\xce\xac\xbb\xa4\xb7\xd1\xa3\xac\xce\xac\xbb\xa4\xce\xaa\xcf\xc8'
p1596
sg7
S'http://www.cnr.cn/newscenter/comment/latest/201405/t20140526_515581034.shtml'
p1597
sg9
(lp1598
V\u53e4\u57ce
p1599
aV\u7ef4\u62a4\u8d39
p1600
aV\u6536\u8d39
p1601
aV\u4fdd\u62a4\u8d39
p1602
aV\u4e3d\u6c5f
p1603
aV\u5927\u7406
p1604
aV\u95e8\u7968
p1605
aV\u7ef4\u62a4
p1606
aV\u6e38\u5ba2
p1607
aV\u516c\u4f17
p1608
asa(dp1609
g5
S'\xb2\xbb\xc3\xf7\xb2\xbb\xb0\xd7\xb5\xc4\xb9\xc5\xb3\xc7\xce\xac\xbb\xa4\xb7\xd1\xb2\xbb\xca\xd5\xce\xaa\xc3\xee'
p1610
sg7
S'http://www.cnr.cn/newscenter/comment/latest/201405/t20140526_515580628.shtml'
p1611
sg9
(lp1612
V\u7ef4\u62a4\u8d39
p1613
aV\u6536\u8d39
p1614
aV\u53e4\u57ce
p1615
aV\u5546\u6237
p1616
aV\u516c\u4f17
p1617
aV\u6b63\u5f53\u6027
p1618
aV\u65c5\u6e38\u4e1a
p1619
aV\u6e38\u5ba2
p1620
aV\u5f53\u5730
p1621
aV\u8d26\u76ee
p1622
asasg63
g64
((lp1623
g1615
ag1620
ag1613
ag1614
ag1617
atp1624
Rp1625
sa(dp1626
g2
(lp1627
(dp1628
g5
S'\xc9\xbd\xd5\xaf\xc3\xfb\xca\xa4\xd4\xe2\xcb\xfb\xb9\xfa\xcd\xb6\xcb\xdf\xc1\xee\xcb\xad\xc3\xc9\xd0\xdf'
p1629
sg7
S'http://www.cnr.cn/newscenter/comment/latest/201405/t20140526_515580892.shtml'
p1630
sg9
(lp1631
V\u5c71\u5be8
p1632
aV\u6587\u5316
p1633
aV\u77e5\u8bc6\u4ea7\u6743
p1634
aV\u6295\u8bc9
p1635
aV\u57c3\u53ca
p1636
aV\u9ad8\u4eff
p1637
aV\u5efa\u7b51
p1638
aV\u521b\u610f
p1639
aV\u72ee\u8eab\u4eba\u9762\u50cf
p1640
aV\u4fdd\u62a4
p1641
asa(dp1642
g5
S'\xc9\xbd\xd5\xaf\xca\xa8\xc9\xed\xc8\xcb\xc3\xe6\xcf\xf1\xa3\xac\xb8\xc3\xb7\xb4\xcb\xbc\xca\xb2\xc3\xb4'
p1643
sg7
S'http://www.cnr.cn/newscenter/comment/latest/201405/t20140526_515580489.shtml'
p1644
sg9
(lp1645
V\u5c71\u5be8
p1646
aV\u6587\u5316
p1647
aV\u57c3\u53ca
p1648
aV\u77e5\u8bc6\u4ea7\u6743
p1649
aV\u6295\u8bc9
p1650
aV\u72ee\u8eab\u4eba\u9762\u50cf
p1651
aV\u6587\u7269
p1652
aV\u590d\u5236
p1653
aV\u6743\u529b
p1654
aV\u521b\u610f
p1655
asasg63
g64
((lp1656
g1648
ag1647
ag1651
ag1649
ag1650
ag1646
ag1655
atp1657
Rp1658
sa(dp1659
g2
(lp1660
(dp1661
g5
S'\xa1\xb0\xb1\xbb\xbe\xab\xc9\xf1\xb2\xa1\xa1\xb1\xc5\xa9\xb8\xbe\xca\xa4\xcb\xdf\xb5\xc4\xbd\xf8\xb2\xbd\xd3\xeb\xd2\xfe\xd3\xc7'
p1662
sg7
S'http://www.cnr.cn/newscenter/comment/latest/201405/t20140523_515572744.shtml'
p1663
sg9
(lp1664
V\u7cbe\u795e\u75c5
p1665
aV\u8bc9\u8bbc
p1666
aV\u5434\u6625\u971e
p1667
aV\u884c\u653f
p1668
aV\u53f8\u6cd5
p1669
aV\u8fdd\u6cd5
p1670
aV\u80dc\u8bc9
p1671
aV\u516c\u6c11
p1672
aV\u6cd5\u9662
p1673
aV\u7b2c\u4e8c\u573a
p1674
asa(dp1675
g5
S'\xc5\xa9\xb8\xbe\xa1\xb0\xb1\xbb\xbe\xab\xc9\xf1\xb2\xa1\xa1\xb1\xb0\xb8\xca\xa4\xcb\xdf\xba\xf3\xb8\xfc\xd3\xa6\xd7\xb7\xd4\xf0'
p1676
sg7
S'http://www.cnr.cn/newscenter/comment/latest/201405/t20140523_515572702.shtml'
p1677
sg9
(lp1678
V\u5434\u6625\u971e
p1679
aV\u8fdd\u6cd5
p1680
aV\u95ee\u8d23
p1681
aV\u7cbe\u795e\u75c5
p1682
aV\u4e0a\u8bbf
p1683
aV\u8ffd\u7a76
p1684
aV\u6cd5\u5ead
p1685
aV\u6267\u6cd5
p1686
aV\u6cd5\u6cbb
p1687
aV\u884c\u653f
p1688
asasg63
g64
((lp1689
g1680
ag1688
ag1682
ag1679
atp1690
Rp1691
sa(dp1692
g2
(lp1693
(dp1694
g5
S'\xb6\xd4\xb9\xd9\xd4\xb1\xd7\xd4\xc9\xb1\xca\xc2\xbc\xfe\xa3\xac\xd3\xdf\xc2\xdb\xd3\xa6\xb6\xe0\xd0\xa9\xbf\xed\xc8\xdd'
p1695
sg7
S'http://www.cnr.cn/newscenter/comment/latest/201406/t20140606_515628517.shtml'
p1696
sg9
(lp1697
V\u5b98\u5458
p1698
aV\u538b\u529b
p1699
aV\u81ea\u6740
p1700
aV\u505a\u4e8b
p1701
aV\u8206\u8bba
p1702
aV\u4e8b\u4ef6
p1703
aV\u975e\u6b63\u5e38
p1704
aV\u9648\u767d\u5cf0
p1705
aV\u5eb8\u5b98
p1706
aV\u6291\u90c1\u75c7
p1707
asa(dp1708
g5
S'\xa1\xb0\xc5\xae\xcd\xac\xd1\xa7\xa1\xb1\xb3\xc9\xb5\xb2\xbc\xfd\xc5\xc6\xca\xc7\xcb\xad\xb5\xc4\xb1\xaf\xb0\xa7\xa3\xbf'
p1709
sg7
S'http://www.cnr.cn/newscenter/comment/latest/201405/t20140522_515569865.shtml'
p1710
sg9
(lp1711
V\u5973\u540c\u5b66
p1712
aV\u7126\u67d0
p1713
aV\u5e72\u90e8
p1714
aV\u5c0f\u59d0
p1715
aV\u6b4c\u5385
p1716
aV\u4f5c\u98ce
p1717
aV\u4e0d\u96c5\u7167
p1718
aV22
p1719
aV\u5f53\u4eca\u793e\u4f1a
p1720
aV\u505c\u804c
p1721
asa(dp1722
g5
S'\xb1\xf0\xc8\xc3\xa1\xb0\xc5\xae\xcd\xac\xd1\xa7\xa1\xb1\xb3\xc9\xcf\xc2\xd2\xbb\xb8\xf6\xb1\xbb\xbb\xd9\xb5\xf4\xb5\xc4\xb4\xca'
p1723
sg7
S'http://www.cnr.cn/newscenter/comment/latest/201405/t20140522_515567222.shtml'
p1724
sg9
(lp1725
V\u5973\u540c\u5b66
p1726
aV\u73ed\u7ea7
p1727
aV\u9876\u7f38
p1728
aV\u5b98\u5458
p1729
aV\u4e8b\u4ef6
p1730
aV\u5c0f\u59d0
p1731
aV\u65b0\u4e00\u5c4a
p1732
aV\u4e34\u65f6\u5de5
p1733
aV\u7b03\u4fe1
p1734
aV\u67e5\u8bc1
p1735
asasg63
g1697
sa(dp1736
g2
(lp1737
(dp1738
g5
S'\xb2\xbb\xc4\xdc\xc8\xc3\xd2\xbb\xb8\xf6\xba\xa2\xd7\xd3\xca\xa7\xc8\xa5\xbc\xe0\xbb\xa4'
p1739
sg7
S'http://www.cnr.cn/newscenter/comment/latest/201406/t20140626_515731786.shtml'
p1740
sg9
(lp1741
V\u516d\u65a4
p1742
aV\u76d1\u62a4\u6743
p1743
aV\u76d1\u62a4\u4eba
p1744
aV\u672a\u6210\u5e74\u4eba
p1745
aV\u5b69\u5b50
p1746
aV\u5802\u54e5
p1747
aV\u76d1\u62a4
p1748
aV\u8f6c\u79fb
p1749
aV\u6539\u5ac1
p1750
aV\u5eb7\u6865
p1751
asa(dp1752
g5
S'\xc9\xd9\xc4\xea\xc9\xb1\xc8\xcb\xa3\xac\xbd\xf6\xbd\xf6\xa1\xb0\xca\xd5\xc8\xdd\xbd\xcc\xd1\xf8\xa1\xb1\xb9\xbb\xb2\xbb\xb9\xbb\xa3\xbf'
p1753
sg7
S'http://www.cnr.cn/newscenter/comment/latest/201406/t20140603_515612127.shtml'
p1754
sg9
(lp1755
V\u672a\u6210\u5e74\u4eba
p1756
aV\u72af\u7f6a
p1757
aV\u6076\u6027
p1758
aV\u6536\u5bb9
p1759
aV\u6c11\u8b66
p1760
aV\u53d7\u5bb3\u4eba
p1761
aV\u5211\u4e8b\u8d23\u4efb
p1762
aV\u6559\u517b
p1763
aV\u76d1\u62a4\u4eba
p1764
aV\u6740\u4eba
p1765
asa(dp1766
g5
S'\xce\xb4\xb3\xc9\xc4\xea\xc8\xcb\xb7\xb8\xd7\xef\xb1\xd8\xd0\xeb\xd7\xb7\xd4\xf0\xb8\xb8\xc4\xb8'
p1767
sg7
S'http://www.cnr.cn/newscenter/comment/latest/201405/t20140528_515592738.shtml'
p1768
sg9
(lp1769
V\u672a\u6210\u5e74\u4eba
p1770
aV\u7236\u6bcd
p1771
aV\u8d23\u4efb
p1772
aV\u72af\u7f6a
p1773
aV\u6cd5\u5f8b\u8d23\u4efb
p1774
aV\u9884\u9632
p1775
aV\u76d1\u62a4\u4eba
p1776
aV\u95ee\u9898
p1777
aV\u5b50\u5973
p1778
aV\u627f\u62c5
p1779
asa(dp1780
g5
S'\xcc\xe5\xb7\xa3\xd6\xc2\xcb\xc0\xb2\xd2\xbe\xe7\xb8\xc3\xb7\xb4\xcb\xbc\xca\xb2\xc3\xb4'
p1781
sg7
S'http://www.cnr.cn/newscenter/comment/latest/201405/t20140522_515566422.shtml'
p1782
sg9
(lp1783
V\u5b69\u5b50
p1784
aV\u7236\u6bcd
p1785
aV\u76d1\u62a4
p1786
aV\u672a\u6210\u5e74
p1787
aV\u4f53\u7f5a
p1788
aV\u516c\u6c11
p1789
aV\u672a\u6210\u5e74\u4eba
p1790
aV\u76d1\u62a4\u4eba
p1791
aV\u793e\u4f1a
p1792
aV\u56fd\u5bb6
p1793
asa(dp1794
g5
S'\xd6\xaa\xb5\xc0\xbd\xf1\xcc\xec\xca\xc7\xa1\xb0\xb9\xfa\xbc\xca\xb2\xbb\xb4\xf2\xd0\xa1\xba\xa2\xc8\xd5\xa1\xb1\xc2\xf0'
p1795
sg7
S'http://www.cnr.cn/newscenter/comment/latest/201404/t20140430_515405402.shtml'
p1796
sg9
(lp1797
V\u4f53\u7f5a
p1798
aV\u6559\u80b2
p1799
aV\u5b69\u5b50
p1800
aV\u68cd\u68d2\u6559\u80b2
p1801
aV\u5c0a\u91cd
p1802
aV\u5bb6\u957f
p1803
aV\u6328\u6253
p1804
aV\u513f\u7ae5
p1805
aV\u5c0f\u5b69
p1806
aV\u672a\u6210\u5e74\u4eba
p1807
asasg63
g64
((lp1808
g1764
ag1756
atp1809
Rp1810
sa(dp1811
g2
(lp1812
(dp1813
g5
S'\xb9\xab\xce\xf1\xd4\xb1\xd2\xfd\xbd\xf8\xa1\xb0\xd1\xf3\xb9\xcd\xd4\xb1\xa1\xb1\xa3\xac\xca\xc7\xb7\xf1\xbb\xe1\xa1\xb0\xcb\xae\xcd\xc1\xb2\xbb\xb7\xfe\xa1\xb1\xa3\xbf'
p1814
sg7
S'http://www.cnr.cn/newscenter/comment/latest/201405/t20140523_515574508.shtml'
p1815
sg9
(lp1816
V\u516c\u52a1\u5458
p1817
aV\u4f5b\u5c71
p1818
aV\u56db\u540d
p1819
aV\u6c34\u571f\u4e0d\u670d
p1820
aV\u6211\u56fd
p1821
aV\u5916\u7ecf\u8d38\u5c40
p1822
aV\u7f51\u7ad9
p1823
aV\u9002\u5e94
p1824
aVNicolas
p1825
aV\u5b98\u573a
p1826
asa(dp1827
g5
S'\xd5\xfe\xb8\xae\xc6\xb8\xd1\xf3\xb9\xcd\xd4\xb1\xa1\xb0\xb9\xfa\xbc\xca\xb7\xb6\xa1\xb1\xd2\xb2\xb5\xc3\xbd\xd3\xb5\xd8\xc6\xf8'
p1828
sg7
S'http://www.cnr.cn/newscenter/comment/latest/201405/t20140522_515566197.shtml'
p1829
sg9
(lp1830
V\u5916\u56fd
p1831
aV\u96c7\u5458
p1832
aV\u5916\u7ecf\u8d38\u5c40
p1833
aV\u672c\u804c\u5de5\u4f5c
p1834
aV\u7f51\u7ad9
p1835
aV\u5916\u56fd\u4eba
p1836
aV\u5de5\u4f5c
p1837
aV\u4f5b\u5c71
p1838
aV\u653f\u5e9c
p1839
aV\u8425\u5546
p1840
asa(dp1841
g5
S'\xc6\xb8\xc8\xce\xa1\xb0\xd1\xf3\xb9\xcd\xd4\xb1\xa1\xb1\xbf\xc9\xb2\xbb\xca\xc7\xa1\xb0\xc7\xe1\xbe\xd9\xcd\xfd\xb6\xaf\xa1\xb1'
p1842
sg7
S'http://www.cnr.cn/newscenter/comment/latest/201405/t20140522_515566191.shtml'
p1843
sg9
(lp1844
V\u96c7\u5458
p1845
aV\u5916\u56fd
p1846
aV\u5916\u7ecf\u8d38\u5c40
p1847
aV\u62db\u8058
p1848
aV\u56fd\u4eba
p1849
aVNicolas
p1850
aV\u4ed6\u4eec
p1851
aV\u548c\u5c1a
p1852
aV\u4f5b\u5c71
p1853
aV\u5de5\u4f5c
p1854
asasg63
g64
((lp1855
g1833
ag1838
atp1856
Rp1857
sa(dp1858
g2
(lp1859
(dp1860
g5
S'\xb9\xfa\xc6\xf3\xd5\xd0\xc6\xb8\xba\xce\xca\xb1\xd5\xaa\xb5\xf4\xca\xc0\xcf\xae\xc3\xb1\xd7\xd3'
p1861
sg7
S'http://www.cnr.cn/newscenter/comment/latest/201405/t20140526_515580569.shtml'
p1862
sg9
(lp1863
V\u62db\u8058
p1864
aV\u4f01\u4e1a
p1865
aV\u56fd\u4f01
p1866
aV\u63a5\u73ed
p1867
aV\u5c31\u4e1a
p1868
aV\u5b50\u5973
p1869
aV\u5927\u5e86\u6cb9\u7530
p1870
aV\u95ee\u9898
p1871
aV\u804c\u5de5
p1872
aV\u6bd5\u4e1a\u751f
p1873
asa(dp1874
g5
S'\xca\xb2\xc3\xb4\xc4\xea\xb4\xfa\xc1\xcb\xa3\xac\xbb\xb9\xd3\xd0\xb9\xfa\xc6\xf3\xd7\xd3\xb5\xdc\xa1\xb0\xb0\xfc\xb7\xd6\xc5\xe4\xa1\xb1\xa3\xbf'
p1875
sg7
S'http://www.cnr.cn/newscenter/comment/latest/201405/t20140520_515548095.shtml'
p1876
sg9
(lp1877
V\u5927\u5e86\u6cb9\u7530
p1878
aV\u5b50\u5f1f
p1879
aV\u77f3\u6cb9
p1880
aV\u5b50\u5973
p1881
aV\u5927\u5e86
p1882
aV\u56fd\u4f01
p1883
aV\u804c\u5de5
p1884
aV\u4efb\u4eba\u552f\u4eb2
p1885
aV\u5236\u5ea6
p1886
aV\u5c31\u4e1a
p1887
asasg63
g64
((lp1888
g1881
ag1887
ag1884
ag1883
ag1878
atp1889
Rp1890
sa(dp1891
g2
(lp1892
(dp1893
g5
S'\xbb\xc6\xba\xa3\xb2\xa8\xb5\xc0\xc7\xb8 \xc0\xb4\xc8\xd5\xc8\xe7\xba\xce\xcf\xe0\xbc\xfb'
p1894
sg7
S'http://www.cnr.cn/newscenter/comment/latest/201406/t20140610_515644545.shtml'
p1895
sg9
(lp1896
V\u9ec4\u6d77\u6ce2
p1897
aV\u5e0c\u671b
p1898
aV\u9762\u5bf9
p1899
aV\u4e0d\u8981
p1900
aV\u6f14\u827a\u5708
p1901
aV\u89c2\u4f17
p1902
aV\u6f14\u5458
p1903
aV\u81ea\u5df1
p1904
aV\u5ad6\u5a3c
p1905
aV\u518d\u89c1\u9762
p1906
asa(dp1907
g5
S'\xa1\xb0\xba\xa3\xb2\xa8\xcd\xa6\xd7\xa1\xa1\xb1\xd5\xfd\xbb\xb0\xb7\xb4\xcb\xb5\xb2\xa2\xb7\xc7\xd5\xe6\xcd\xac\xc7\xe9'
p1908
sg7
S'http://www.cnr.cn/newscenter/comment/latest/201405/t20140521_515557039.shtml'
p1909
sg9
(lp1910
V\u9ec4\u6d77\u6ce2
p1911
aV\u5ad6\u5a3c
p1912
aV\u884c\u4e3a
p1913
aV\u58f0\u97f3
p1914
aV\u7f51\u53cb
p1915
aV\u9053\u5fb7
p1916
aV\u6076\u641e
p1917
aV\u8ba4\u540c
p1918
aV\u4e92\u8054\u7f51
p1919
aV\u6f5c\u89c4\u5219
p1920
asa(dp1921
g5
S'\xc8\xcb\xd4\xb5\xd4\xd9\xba\xc3\xd2\xb2\xb2\xbb\xc4\xdc\xb8\xf8\xb3\xf3\xce\xc5\xbf\xaa\xcd\xd1'
p1922
sg7
S'http://www.cnr.cn/newscenter/comment/latest/201405/t20140519_515540318.shtml'
p1923
sg9
(lp1924
V\u9ec4\u6d77\u6ce2
p1925
aV\u5ad6\u5a3c
p1926
aV\u6076\u641e
p1927
aV\u6d77\u6ce2
p1928
aV\u516c\u4f17
p1929
aV\u5708\u4e2d
p1930
aV\u5bf9\u4e0d\u8d77
p1931
aV\u4eba\u7f18
p1932
aV\u7f51\u53cb
p1933
aV\u58f0\u63f4
p1934
asa(dp1935
g5
S'\xbb\xc6\xba\xa3\xb2\xa8\xca\xc2\xbc\xfe\xd6\xd0\xd0\xb9\xc3\xdc\xb1\xc8\xe6\xce\xe6\xbd\xb8\xfc\xb2\xbb\xb5\xc0\xb5\xc2'
p1936
sg7
S'http://www.cnr.cn/newscenter/comment/latest/201405/t20140519_515540314.shtml'
p1937
sg9
(lp1938
V\u9ec4\u6d77\u6ce2
p1939
aV\u5ad6\u5a3c
p1940
aV\u5356\u6deb\u5973
p1941
aV\u6cc4\u5bc6\u8005
p1942
aV\u4e0d\u53bb
p1943
aV\u7f51\u53cb
p1944
aV\u5bbd\u6055
p1945
aV\u4eba\u5bb6
p1946
aV\u4ec0\u4e48
p1947
aV\u4f24\u5bb3
p1948
asa(dp1949
g5
S'\xbb\xc6\xba\xa3\xb2\xa8\xca\xc2\xbc\xfe\xa3\xac\xb2\xbb\xb8\xc3\xb1\xbb\xb9\xfd\xb6\xc8\xd3\xe9\xc0\xd6\xbb\xaf'
p1950
sg7
S'http://www.cnr.cn/newscenter/comment/latest/201405/t20140519_515539922.shtml'
p1951
sg9
(lp1952
V\u9ec4\u6d77\u6ce2
p1953
aV\u7f51\u53cb
p1954
aV\u4e8b\u4ef6
p1955
aV\u674e\u767d
p1956
aV\u5a31\u4e50
p1957
aV\u5ad6\u5a3c
p1958
aV\u8c03\u4f83
p1959
aV\u4f20\u64ad
p1960
aV\u9519\u8bef\u884c\u4e3a
p1961
aV\u9ec4\u78ca
p1962
asa(dp1963
g5
S'\xa1\xb0\xbb\xc6\xba\xa3\xb2\xa8\xe6\xce\xe6\xbd\xa1\xb1\xb8\xc3\xb2\xbb\xb8\xc3\xb1\xbb\xca\xbe\xd6\xda'
p1964
sg7
S'http://www.cnr.cn/newscenter/comment/latest/201405/t20140519_515539873.shtml'
p1965
sg9
(lp1966
V\u9ec4\u6d77\u6ce2
p1967
aV\u6cbb\u5b89\u7ba1\u7406
p1968
aV\u5ad6\u5a3c
p1969
aV\u8b66\u65b9
p1970
aV\u5356\u6deb\u5ad6\u5a3c
p1971
aV\u5904\u7f5a
p1972
aV\u793a\u4f17
p1973
aV\u5904\u7f5a\u6cd5
p1974
aV\u516c\u5f00
p1975
aV\u4eba\u683c\u5c0a\u4e25
p1976
asasg63
g64
((lp1977
g1911
ag1912
atp1978
Rp1979
sa(dp1980
g2
(lp1981
(dp1982
g5
S'\xb3\xc6\xba\xf4\xa1\xb0\xc0\xcf\xb0\xe5\xa1\xb1\xbb\xf2\xa1\xb0\xcd\xac\xd6\xbe\xa1\xb1\xca\xc7\xb8\xf6\xce\xca\xcc\xe2'
p1983
sg7
S'http://www.cnr.cn/newscenter/comment/latest/201405/t20140516_515523327.shtml'
p1984
sg9
(lp1985
V\u79f0\u547c
p1986
aV\u540c\u5fd7
p1987
aV\u5b98\u5458
p1988
aV\u515a\u5185
p1989
aV\u8001\u677f
p1990
aV\u5b98\u573a
p1991
aV\u901a\u77e5
p1992
aV\u5b98\u8854
p1993
aV\u4e00\u5f8b
p1994
aV\u5eb8\u4fd7
p1995
asa(dp1996
g5
S'"\xbd\xad\xba\xfe\xc9\xfa\xcc\xac"\xb2\xbb\xb3\xfd\xb9\xd9\xb3\xa1\xd3\xb9\xb3\xc6\xc4\xd1\xc8\xa5'
p1997
sg7
S'http://www.cnr.cn/newscenter/comment/latest/201405/t20140515_515518257.shtml'
p1998
sg9
(lp1999
V\u5b98\u573a
p2000
aV\u6c5f\u6e56
p2001
aV\u79f0\u547c
p2002
aV\u7279\u6743\u601d\u60f3
p2003
aV\u751f\u6001
p2004
aV\u5eb8\u4fd7
p2005
aV\u8001\u5927
p2006
aV\u5e72\u90e8
p2007
aV\u8001\u677f
p2008
aV\u9886\u5bfc
p2009
asasg63
g64
((lp2010
g2000
ag2008
ag2002
ag2005
atp2011
Rp2012
sa(dp2013
g2
(lp2014
(dp2015
g5
S'\xb8\xf0\xc0\xbc\xcb\xd8\xca\xb7\xbf\xcb\xb0\xb8\xb8\xc3\xc8\xe7\xba\xce\xbd\xe2\xb6\xc1'
p2016
sg7
S'http://www.cnr.cn/newscenter/comment/latest/201405/t20140515_515513423.shtml'
p2017
sg9
(lp2018
V\u845b\u5170\u7d20
p2019
aV\u53f2\u514b\u6848
p2020
aV\u53f2\u514b
p2021
aV\u73af\u5883
p2022
aV\u836f\u54c1
p2023
aV\u5e02\u573a
p2024
aV\u4e2d\u56fd
p2025
aV\u601d\u8003
p2026
aV\u89e3\u8bfb
p2027
aV\u8150\u8d25
p2028
asa(dp2029
g5
S'\xb8\xf0\xc0\xbc\xcb\xd8\xca\xb7\xbf\xcb\xb0\xb8\xca\xcd\xb7\xc5\xc1\xcb\xca\xb2\xc3\xb4\xd0\xc5\xba\xc5'
p2030
sg7
S'http://www.cnr.cn/newscenter/comment/latest/201405/t20140515_515513413.shtml'
p2031
sg9
(lp2032
V\u845b\u5170\u7d20
p2033
aV\u53f2\u514b
p2034
aV\u4e2d\u56fd
p2035
aV\u8fd9\u8d77
p2036
aV\u6848\u4ef6
p2037
aV\u8de8\u56fd\u516c\u53f8
p2038
aV\u4f9d\u6cd5\u6cbb\u56fd
p2039
aV\u5546\u4e1a
p2040
aV\u8150\u8d25
p2041
aV\u4f9d\u6cd5
p2042
asasg63
g64
((lp2043
g2033
ag2035
ag2034
ag2041
atp2044
Rp2045
sa(dp2046
g2
(lp2047
(dp2048
g5
S'\xc6\xda\xb4\xfd\xbb\xec\xba\xcf\xcb\xf9\xd3\xd0\xd6\xc6\xb4\xf2\xc6\xc6\xb9\xfa\xc6\xf3\xa1\xb0\xd7\xd3\xc5\xae\xbd\xd3\xb0\xe0\xa1\xb1\xc3\xd4\xbe\xd6'
p2049
sg7
S'http://www.cnr.cn/newscenter/comment/latest/201405/t20140528_515591931.shtml'
p2050
sg9
(lp2051
V\u56fd\u4f01
p2052
aV\u5b50\u5973
p2053
aV\u63a5\u73ed
p2054
aV\u9ad8\u7ba1
p2055
aV\u6240\u6709\u5236
p2056
aV\u6539\u9769
p2057
aV\u804c\u5de5
p2058
aV\u90e8\u5206
p2059
aV\u6df7\u5408
p2060
aV\u6fc0\u52b1
p2061
asa(dp2062
g5
S'\xcf\xde\xd6\xc6\xb9\xfa\xc6\xf3\xb8\xdf\xb9\xdc\xd0\xbd\xb3\xea\xbf\xc9\xc4\xdc\xb2\xa2\xb7\xc7\xba\xc3\xd2\xa9\xb7\xbd'
p2063
sg7
S'http://www.cnr.cn/newscenter/comment/latest/201405/t20140514_515504154.shtml'
p2064
sg9
(lp2065
V\u9ad8\u7ba1
p2066
aV\u85aa\u916c
p2067
aV\u56fd\u4f01
p2068
aV\u9650\u85aa
p2069
aV\u4f01\u4e1a
p2070
aV\u56fd\u4f01\u6539\u9769
p2071
aV\u6240\u6709\u5236
p2072
aV\u8206\u8bba
p2073
aV\u5e02\u573a\u5316
p2074
aV\u6539\u9769
p2075
asasg63
g64
((lp2076
g2075
ag2066
ag2068
ag2072
atp2077
Rp2078
sa(dp2079
g2
(lp2080
(dp2081
g5
S'\xd1\xeb\xd0\xd0\xba\xb0\xbb\xb0\xba\xf3\xb7\xbf\xb4\xfb \xb2\xbb\xcb\xc9\xb7\xb4\xbd\xf4\xd5\xdb\xc9\xe4\xc9\xb6'
p2082
sg7
S'http://www.cnr.cn/newscenter/comment/latest/201406/t20140605_515623154.shtml'
p2083
sg9
(lp2084
V\u623f\u8d37
p2085
aV\u8d37\u6b3e
p2086
aV\u94f6\u884c
p2087
aV\u4e09\u6027
p2088
aV\u4e09\u5927
p2089
aV\u592e\u884c
p2090
aV\u8d2d\u623f
p2091
aV\u623f\u5730\u4ea7
p2092
aV\u76d1\u7ba1\u90e8\u95e8
p2093
aV\u6d41\u52a8\u6027
p2094
asa(dp2095
g5
S'\xd1\xeb\xd0\xd0\xc1\xa6\xcd\xa6\xca\xd7\xcc\xd7\xb7\xbf\xb4\xfb\xb2\xa2\xb7\xc7\xcd\xd0\xca\xd0'
p2096
sg7
S'http://www.cnr.cn/newscenter/comment/latest/201405/t20140514_515504240.shtml'
p2097
sg9
(lp2098
V\u623f\u8d37
p2099
aV\u53d1\u653e
p2100
aV\u4f4f\u623f\u8d37\u6b3e
p2101
aV\u697c\u5e02
p2102
aV\u592e\u884c
p2103
aV\u4e2a\u4eba
p2104
aV\u94f6\u884c
p2105
aV\u6258\u5e02
p2106
aV\u8c03\u63a7
p2107
aV\u52a0\u5feb
p2108
asa(dp2109
g5
S'\xd1\xeb\xd0\xd0\xcd\xd0\xbe\xd9\xb7\xbf\xb4\xfb \xce\xa2\xb5\xf7\xd0\xc2\xd5\xd0\xc1\xc1\xcf\xe0'
p2110
sg7
S'http://www.cnr.cn/newscenter/comment/latest/201405/t20140514_515504084.shtml'
p2111
sg9
(lp2112
V\u5546\u4e1a\u94f6\u884c
p2113
aV\u592e\u884c
p2114
aV\u623f\u5730\u4ea7
p2115
aV\u5218\u58eb
p2116
aV2011
p2117
aV\u623f\u8d37
p2118
aV\u589e\u901f
p2119
aV\u4f4f\u623f\u8d37\u6b3e
p2120
aV\u8868\u6001
p2121
aV\u94f6\u884c
p2122
asa(dp2123
g5
S'\xd1\xeb\xd0\xd0\xd6\xb8\xb5\xbc\xb7\xbf\xb4\xfb\xc4\xd1\xb5\xb2\xb7\xbf\xbc\xdb\xb9\xd5\xb5\xe3\xd0\xce\xb3\xc9'
p2124
sg7
S'http://www.cnr.cn/newscenter/comment/latest/201405/t20140514_515504011.shtml'
p2125
sg9
(lp2126
V\u623f\u8d37
p2127
aV\u94f6\u884c
p2128
aV\u623f\u4ef7
p2129
aV\u623f\u5730\u4ea7
p2130
aV\u62d0\u70b9
p2131
aV\u653e\u677e
p2132
aV\u4f4f\u623f\u8d37\u6b3e
p2133
aV\u4e2a\u522b
p2134
aV\u623f\u8d37\u5229\u7387
p2135
aV\u5546\u4e1a\u94f6\u884c
p2136
asasg63
g64
((lp2137
g2099
ag2105
atp2138
Rp2139
sa(dp2140
g2
(lp2141
(dp2142
g5
S'\xa1\xb0\xc6\xaf\xca\xac\xd3\xe3\xcc\xc1\xa1\xb1\xd5\xe6\xcf\xe0\xd0\xe8\xd2\xaa\xd7\xa8\xd2\xb5\xbb\xd8\xb4\xf0'
p2143
sg7
S'http://www.cnr.cn/newscenter/comment/latest/201406/t20140616_515669721.shtml'
p2144
sg9
(lp2145
V\u8b66\u65b9
p2146
aV\u6d3e\u51fa\u6240
p2147
aV\u5bb6\u5c5e
p2148
aV\u590f\u6587\u91d1
p2149
aV\u62d8\u7559
p2150
aV\u9c7c\u5858
p2151
aV\u4f24\u75d5
p2152
aV\u6b7b\u8005
p2153
aV\u6b7b\u4ea1
p2154
aV\u884c\u653f\u62d8\u7559
p2155
asa(dp2156
g5
S'\xa1\xb0\xd8\xab\xd6\xd6\xa1\xb1\xb2\xbb\xbe\xcd\xca\xc7\xb8\xf6\xb2\xbb\xba\xc3\xcc\xfd\xb5\xc4\xbb\xb0\xa3\xbf'
p2157
sg7
S'http://www.cnr.cn/newscenter/comment/latest/201405/t20140514_515506434.shtml'
p2158
sg9
(lp2159
V\u5b6c\u79cd
p2160
aV\u4ea4\u8b66
p2161
aV\u8d34\u6761
p2162
aV\u5156\u5dde
p2163
aV\u7f5a\u6b3e
p2164
aV\u7f51\u53cb
p2165
aV\u7fa4\u4f17
p2166
aV\u5c0f\u4e8b
p2167
aV\u5e94\u8be5
p2168
aV\u751f\u6d3b
p2169
asa(dp2170
g5
S'\xb3\xb5\xd6\xf7\xc2\xee\xbe\xaf\xb2\xec\xb1\xbb\xbe\xd0\xa3\xac\xb9\xab\xc8\xa8\xc9\xe6\xcf\xd3\xb4\xf2\xbb\xf7\xb1\xa8\xb8\xb4'
p2171
sg7
S'http://www.cnr.cn/newscenter/comment/latest/201405/t20140514_515504141.shtml'
p2172
sg9
(lp2173
V\u5156\u5dde
p2174
aV\u5b6c\u79cd
p2175
aV\u8b66\u65b9
p2176
aV\u67d0\u67d0
p2177
aV\u4ea4\u8b66
p2178
aV\u62d8\u7559
p2179
aV\u7f51\u8b66
p2180
aV\u4e07\u62c5
p2181
aV\u7f51\u9a82
p2182
aV\u5c0f\u9898\u5927\u505a
p2183
asa(dp2184
g5
S'\xcd\xf8\xc9\xcf\xc2\xee\xbe\xe4\xa1\xb0\xd8\xab\xd6\xd6\xa1\xb1\xb1\xbb\xbe\xd0\xa3\xac\xca\xf4\xd6\xb4\xb7\xa8\xb9\xfd\xb5\xb1'
p2185
sg7
S'http://www.cnr.cn/newscenter/comment/latest/201405/t20140514_515503956.shtml'
p2186
sg9
(lp2187
V\u5156\u5dde
p2188
aV\u6267\u6cd5
p2189
aV\u7f51\u6c11
p2190
aV\u516c\u5b89
p2191
aV\u62d8\u7559
p2192
aV\u4ea4\u8b66
p2193
aV\u8b66\u65b9
p2194
aV\u4e94\u65e5
p2195
aV\u5fae\u535a
p2196
aV\u5b6c\u79cd
p2197
asa(dp2198
g5
S'\xa1\xb0\xd7\xa5\xb1\xe8\xd7\xd3\xa1\xb1\xd6\xb4\xb7\xa8\xc4\xd1\xbb\xbb\xc0\xb4\xce\xc8\xb6\xa8\xbe\xd6\xc3\xe6'
p2199
sg7
S'http://www.cnr.cn/newscenter/comment/latest/201404/t20140424_515363516.shtml'
p2200
sg9
(lp2201
V\u8fab\u5b50
p2202
aV\u62d8\u7559
p2203
aV\u6293\u8fab\u5b50
p2204
aV\u51b3\u5b9a\u4e66
p2205
aV\u6267\u6cd5
p2206
aV\u6c5f\u5e06
p2207
aV\u5f53\u4e8b\u4eba
p2208
aV\u8b66\u65b9
p2209
aV\u5de1\u89c6\u7ec4
p2210
aV\u516c\u5b89\u673a\u5173
p2211
asasg63
g2145
sa(dp2212
g2
(lp2213
(dp2214
g5
S'\xd4\xbd\xc4\xcf\xd4\xd9\xc4\xd6\xd2\xb2\xb2\xbb\xbb\xe1\xb5\xc3\xb3\xd1'
p2215
sg7
S'http://www.cnr.cn/newscenter/comment/latest/201405/t20140530_515602682.shtml'
p2216
sg9
(lp2217
V\u8d8a\u5357
p2218
aV\u8d8a\u65b9
p2219
aV\u6e14\u8239
p2220
aV\u897f\u6c99
p2221
aV\u4e2d\u56fd
p2222
aV\u897f\u6c99\u7fa4\u5c9b
p2223
aV\u4e3b\u6743
p2224
aV\u6700\u65e9
p2225
aV\u5f00\u53d1
p2226
aV\u4f5c\u4e1a
p2227
asa(dp2228
g5
S'\xce\xf7\xc9\xb3\xb2\xc5\xca\xc7\xd4\xbd\xc4\xcf\xb5\xc4\xd2\xb0\xd0\xc4\xcb\xf9\xd4\xda'
p2229
sg7
S'http://www.cnr.cn/newscenter/comment/latest/201405/t20140515_515513860.shtml'
p2230
sg9
(lp2231
V\u897f\u6c99
p2232
aV\u8d8a\u5357
p2233
aV\u897f\u6c99\u7fa4\u5c9b
p2234
aV\u62c9\u585e\u5c14
p2235
aV\u4e89\u8bae
p2236
aV\u9ec4\u6c99
p2237
aV\u5357\u6d77
p2238
aV\u6211\u4eec
p2239
aV\u8206\u8bba
p2240
aV\u5357\u6c99
p2241
asa(dp2242
g5
S'\xd4\xbd\xc4\xcf\xc4\xaa\xd7\xd4\xc8\xa1\xc6\xe4\xc8\xe8'
p2243
sg7
S'http://www.cnr.cn/newscenter/comment/latest/201405/t20140513_515495253.shtml'
p2244
sg9
(lp2245
V\u897f\u6c99
p2246
aV\u8d8a\u5357
p2247
aV\u6cb3\u5185
p2248
aV\u8d8a\u5357\u4eba
p2249
aV\u4e2d\u56fd
p2250
aV\u793a\u5a01\u6e38\u884c
p2251
aV\u8d8a\u65b9
p2252
aV\u5357\u6c99
p2253
aV\u4f5c\u4e1a
p2254
aV\u94bb\u4e95
p2255
asasg63
g64
((lp2256
g2233
ag2232
atp2257
Rp2258
sa(dp2259
g2
(lp2260
(dp2261
g5
S'\xb6\xc5\xbe\xf8\xa1\xb0\xc2\xed\xc2\xb7\xc0\xad\xc1\xb4\xa1\xb1\xa3\xac\xca\xc7\xc1\xbc\xd0\xc4\xb8\xfc\xca\xc7\xd4\xf0\xc8\xce'
p2262
sg7
S'http://www.cnr.cn/newscenter/comment/latest/201406/t20140616_515669903.shtml'
p2263
sg9
(lp2264
V\u7ba1\u7ebf
p2265
aV\u5730\u4e0b
p2266
aV\u57ce\u5e02
p2267
aV\u826f\u5fc3
p2268
aV\u62c9\u94fe
p2269
aV\u7ba1\u7f51
p2270
aV\u9a6c\u8def
p2271
aV\u6743\u5c5e
p2272
aV\u4ea1\u7f8a\u8865\u7262
p2273
aV\u4fe1\u606f
p2274
asa(dp2275
g5
S'\xbc\xd3\xc7\xbf\xb3\xc7\xca\xd0\xb9\xdc\xc0\xed\xb4\xd3\xd6\xce\xc0\xed\xb5\xd8\xcf\xc2\xd7\xf6\xc6\xf0'
p2276
sg7
S'http://www.cnr.cn/newscenter/comment/latest/201406/t20140616_515669810.shtml'
p2277
sg9
(lp2278
V\u57ce\u5e02
p2279
aV\u5730\u4e0b
p2280
aV\u7ba1\u7f51
p2281
aV\u6392\u6c34\u7cfb\u7edf
p2282
aV10
p2283
aV\u7ba1\u7ebf
p2284
aV\u6539\u9020
p2285
aV\u5efa\u8bbe
p2286
aV\u6cbb\u7406
p2287
aV\u89c4\u5212
p2288
asa(dp2289
g5
S'\xd0\xc2\xbc\xd3\xc6\xc2\xb5\xc4\xd3\xea\xcb\xae \xce\xaa\xba\xce\xb2\xbb\xd2\xbb\xc5\xc5\xc1\xcb\xd6\xae'
p2290
sg7
S'http://www.cnr.cn/newscenter/comment/latest/201405/t20140514_515504315.shtml'
p2291
sg9
(lp2292
V\u65b0\u52a0\u5761
p2293
aV\u6c61\u6c34
p2294
aV\u5730\u8868\u6c34
p2295
aV\u66b4\u96e8
p2296
aV\u5185\u6d9d
p2297
aV\u6c34\u5e93
p2298
aV\u6536\u96c6
p2299
aV\u57ce\u5e02
p2300
aV\u7ba1\u7f51
p2301
aV\u4e00\u90e8\u5206
p2302
asa(dp2303
g5
S'\xbc\xec\xcc\xd6\xb3\xc7\xca\xd0\xc4\xda\xc0\xd4\xd6\xd8\xd4\xda\xbf\xc6\xd1\xa7\xbc\xf5\xd4\xd6'
p2304
sg7
S'http://www.cnr.cn/newscenter/comment/latest/201405/t20140513_515494716.shtml'
p2305
sg9
(lp2306
V\u5185\u6d9d
p2307
aV\u57ce\u5e02
p2308
aV\u7ba1\u7f51
p2309
aV\u6392\u6c34
p2310
aV\u9632\u6d9d
p2311
aV\u51cf\u707e
p2312
aV\u66b4\u96e8
p2313
aV\u4e00\u9047
p2314
aV\u5730\u6bb5
p2315
aV\u65b0\u57ce\u533a
p2316
asa(dp2317
g5
S'\xb3\xc7\xca\xd0\xc4\xda\xc0\xd4\xd4\xb4\xd3\xda\xb6\xd4\xd5\xfe\xbc\xa8\xbf\xb4\xb5\xc3\xbc\xfb\xb5\xc4\xa1\xb0\xd7\xb7\xc7\xf3\xa1\xb1'
p2318
sg7
S'http://www.cnr.cn/newscenter/comment/latest/201405/t20140513_515494688.shtml'
p2319
sg9
(lp2320
V\u6df1\u5733
p2321
aV\u66b4\u96e8
p2322
aV\u57ce\u5e02
p2323
aV\u57ce\u5e02\u89c4\u5212
p2324
aV\u5185\u6d9d
p2325
aV\u5e74\u8f7b
p2326
aV\u9a74\u7caa\u86cb
p2327
aV\u53d1\u5c55
p2328
aV\u57ce\u5e02\u6392\u6c34
p2329
aV\u89c4\u5212
p2330
asasg63
g64
((lp2331
g2281
ag2280
ag2279
ag2284
atp2332
Rp2333
sa(dp2334
g2
(lp2335
(dp2336
g5
S'\xa1\xb0\xb5\xf6\xd3\xe3\xa1\xb1\xcb\xcd\xc0\xf1\xca\xd3\xc6\xb5\xca\xc7\xb2\xbf\xbe\xab\xb2\xca\xb5\xc4\xbe\xaf\xca\xbe\xc6\xac'
p2337
sg7
S'http://www.cnr.cn/newscenter/comment/latest/201405/t20140516_515527023.shtml'
p2338
sg9
(lp2339
V\u9001\u793c\u8005
p2340
aV\u89c6\u9891
p2341
aV\u7ea2\u5305
p2342
aV\u8d2d\u7269
p2343
aV\u9001\u793c
p2344
aV\u738b\u4e1c\u9534
p2345
aV\u6536\u53d7
p2346
aV\u5077\u62cd
p2347
aV\u884c\u8d3f\u7f6a
p2348
aV\u884c\u8d3f
p2349
asa(dp2350
g5
S'\xd2\xaa\xb6\xc1\xb6\xae\xb5\xf6\xd3\xe3\xca\xbd\xd0\xd0\xbb\xdf\xb1\xb3\xba\xf3\xb5\xc4\xb7\xb4\xb8\xaf\xc3\xf1\xd2\xe2'
p2351
sg7
S'http://www.cnr.cn/newscenter/comment/latest/201405/t20140516_515527018.shtml'
p2352
sg9
(lp2353
V\u7ea2\u5305
p2354
aV\u53cd\u8150
p2355
aV\u884c\u8d3f
p2356
aV\u9001\u9519
p2357
aV\u4fa6\u67e5
p2358
aV\u8bf1\u60d1
p2359
aV\u66dd\u5149
p2360
aV\u53d7\u8d3f\u8005
p2361
aV\u89c6\u9891
p2362
aV\u9493\u9c7c\u5f0f
p2363
asa(dp2364
g5
S'\xc9\xbd\xb6\xab\xd1\xcc\xcc\xa8\xd2\xbb\xb9\xd9\xd4\xb1\xca\xd5\xc0\xf1\xb1\xbb\xcd\xb5\xc5\xc4 \xcb\xcd\xc0\xf1\xd5\xdf\xd2\xbb\xb6\xc8\xb8\xe3\xb4\xed\xba\xec\xb0\xfc'
p2365
sg7
S'http://www.cnr.cn/newscenter/comment/latest/201405/t20140516_515527115.shtml'
p2366
sg9
(lp2367
V\u7ea2\u5305
p2368
aV\u5973\u5b50
p2369
aV\u4e66\u8bb0
p2370
aV\u89c6\u9891
p2371
aV\u6536\u53d7
p2372
aV\u70df\u53f0
p2373
aV\u738b\u4e1c\u9534
p2374
aV\u56e2\u59d4\u4e66\u8bb0
p2375
aV16
p2376
aV\u56e2\u5e02\u59d4
p2377
asasg63
g64
((lp2378
g2354
ag2362
atp2379
Rp2380
sa(dp2381
g2
(lp2382
(dp2383
g5
S'\xd3\xa6\xb4\xd318\xc8\xcb\xcb\xc0\xcd\xf6\xca\xc2\xb9\xca\xd6\xd0\xce\xfc\xc8\xa1\xc4\xc4\xd0\xa9\xbd\xcc\xd1\xb5'
p2384
sg7
S'http://www.cnr.cn/newscenter/comment/latest/201405/t20140512_515485436.shtml'
p2385
sg9
(lp2386
V\u6d89\u4e8b
p2387
aV\u9752\u5c9b
p2388
aV\u804c\u5de5
p2389
aV\u4e8b\u6545
p2390
aV\u677f\u623f
p2391
aV\u641c\u6551
p2392
aV\u76f8\u5173
p2393
aV\u5927\u5230\u66b4\u96e8
p2394
aV\u6321\u571f\u5899
p2395
aV\u6b7b\u4ea1\u4e8b\u6545
p2396
asa(dp2397
g5
S'\xc7\xbd\xb5\xb9\xce\xdd\xcb\xfa\xcb\xad\xce\xaa18\xb8\xf6\xc9\xfa\xc3\xfc\xb8\xba\xd4\xf0'
p2398
sg7
S'http://www.cnr.cn/newscenter/comment/latest/201405/t20140512_515485426.shtml'
p2399
sg9
(lp2400
V\u6321\u571f\u5899
p2401
aV18
p2402
aV\u677f\u623f
p2403
aV\u4e8b\u6545
p2404
aV\u5012\u584c
p2405
aV\u5de5\u4eba
p2406
aV\u584c\u5899
p2407
aV\u9ec4\u5c9b
p2408
aV\u804c\u5de5
p2409
aV\u9632\u6c5b
p2410
asasg63
g64
((lp2411
g2403
ag2409
ag2401
ag2404
atp2412
Rp2413
sa(dp2414
g2
(lp2415
(dp2416
g5
S'\xb5\xe3\xc3\xfb\xcd\xa8\xb1\xa8\xb2\xbf\xce\xaf\xc8\xfd\xb9\xab\xce\xa5\xb9\xe6\xd0\xe8\xbb\xfa\xd6\xc6\xbb\xaf'
p2417
sg7
S'http://www.cnr.cn/newscenter/comment/latest/201406/t20140626_515731873.shtml'
p2418
sg9
(lp2419
V\u4e09\u516c
p2420
aV\u7ecf\u8d39
p2421
aV\u8fdd\u89c4
p2422
aV\u5ba1\u8ba1
p2423
aV\u76d1\u7763
p2424
aV\u70b9\u540d
p2425
aV\u76d1\u7ba1
p2426
aV\u8fdd\u89c4\u884c\u4e3a
p2427
aV\u5ba1\u8ba1\u7f72
p2428
aV\u9884\u7b97
p2429
asa(dp2430
g5
S'\xbe\xaf\xcc\xe8\xcb\xf5\xbc\xf5\xb5\xc4\xa1\xb0\xc8\xfd\xb9\xab\xa1\xb1\xd3\xd6\xb1\xbb\xd7\xaa\xbc\xde\xb3\xf6\xc8\xa5'
p2431
sg7
S'http://www.cnr.cn/newscenter/comment/latest/201406/t20140625_515723862.shtml'
p2432
sg9
(lp2433
V\u4e09\u516c
p2434
aV\u8f6c\u5ac1
p2435
aV\u4e0b\u5c5e\u5355\u4f4d
p2436
aV\u90e8\u95e8
p2437
aV\u90e8\u59d4
p2438
aV\u4f1a\u8bae\u8d39
p2439
aV\u5ba1\u8ba1\u62a5\u544a
p2440
aV\u644a\u6d3e
p2441
aV2013
p2442
aV\u6240\u5c5e\u5355\u4f4d
p2443
asa(dp2444
g5
S'\xa1\xb0\xc1\xe3\xa1\xb1\xb9\xab\xb7\xd1\xb3\xf6\xb9\xfa\xa3\xac\xb2\xa2\xb7\xc7\xb2\xbb\xbf\xc9\xcf\xeb\xcf\xf3'
p2445
sg7
S'http://www.cnr.cn/newscenter/comment/latest/201406/t20140604_515617712.shtml'
p2446
sg9
(lp2447
V\u51fa\u56fd
p2448
aV\u516c\u8d39
p2449
aV\u7ecf\u8d39
p2450
aV\u516c\u6b3e
p2451
aV\u4e09\u516c
p2452
aV\u90e8\u95e8
p2453
aV\u9884\u7b97
p2454
aV\u538b\u51cf
p2455
aV\u4e0d\u51fa
p2456
aV\u77eb\u6789
p2457
asa(dp2458
g5
S'\xbb\xe1\xd2\xe9\xb7\xd1\xb1\xf0\xb3\xc9\xc1\xcb\xb8\xaf\xb0\xdc\xc0\xcb\xb7\xd1\xb5\xc4\xa1\xb0\xd0\xc2\xbf\xf0\xa1\xb1'
p2459
sg7
S'http://www.cnr.cn/newscenter/comment/latest/201405/t20140512_515485179.shtml'
p2460
sg9
(lp2461
V\u4f1a\u8bae\u8d39
p2462
aV\u4e09\u516c
p2463
aV\u7ecf\u8d39
p2464
aV\u516c\u5f00
p2465
aV\u4f1a\u8bae
p2466
aV\u9884\u7b97
p2467
aV\u5e7f\u5dde
p2468
aV\u538b\u7f29
p2469
aV\u6807\u51c6
p2470
aV\u90e8\u95e8
p2471
asasg63
g2419
sa(dp2472
g2
(lp2473
(dp2474
g5
S'\xb8\xdf\xd0\xbd\xd5\xd0\xc6\xb8\xd0\xdc\xc3\xa8\xa1\xb0\xb0\xef\xd6\xf7\xa1\xb1,\xd5\xe2\xb8\xf6\xbf\xc9\xd2\xd4\xd3\xd0!'
p2475
sg7
S'http://www.cnr.cn/newscenter/comment/latest/201405/t20140512_515485606.shtml'
p2476
sg9
(lp2477
V\u5e2e\u4e3b
p2478
aV\u5927\u718a\u732b
p2479
aV\u718a\u732b
p2480
aV\u5de5\u4f5c
p2481
aV\u62db\u8058
p2482
aV\u9ad8\u85aa
p2483
aV\u62a4\u5c9b
p2484
aV20
p2485
aV\u6211\u4eec
p2486
aV\u5e74\u85aa
p2487
asa(dp2488
g5
S'\xa1\xb0\xd0\xdc\xc3\xa8\xb0\xef\xd6\xf7\xa1\xb1\xd5\xd0\xc6\xb8\xa3\xac\xc2\xf4\xc3\xc8\xbb\xb9\xca\xc7\xc9\xb9\xd3\xc5\xd4\xbd\xa3\xbf'
p2489
sg7
S'http://www.cnr.cn/newscenter/comment/latest/201405/t20140512_515485136.shtml'
p2490
sg9
(lp2491
V\u718a\u732b
p2492
aV\u5e2e\u4e3b
p2493
aV\u5927\u5821\u7901
p2494
aV\u62db\u8058
p2495
aV\u5e74\u85aa
p2496
aV\u5671\u5934
p2497
aV\u5356\u840c
p2498
aV20
p2499
aV\u6253\u5361
p2500
aV\u62a4\u5c9b
p2501
asasg63
g64
((lp2502
g2499
ag2495
ag2493
ag2496
ag2501
ag2492
atp2503
Rp2504
sa(dp2505
g2
(lp2506
(dp2507
g5
S'\xc8\xcf\xb6\xa8\xb9\xab\xbf\xbc\xd7\xf7\xb1\xd7\xa3\xac\xb2\xbb\xc4\xdc\xd6\xbb\xbf\xbf\xa1\xb0\xbc\xbc\xca\xf5\xa1\xb1\xc0\xb4\xc5\xd0\xb6\xa8'
p2508
sg7
S'http://www.cnr.cn/newscenter/comment/latest/201405/t20140519_515538588.shtml'
p2509
sg9
(lp2510
V\u8003\u751f
p2511
aV\u4f5c\u5f0a
p2512
aV\u8bd5\u5377
p2513
aV\u96f7\u540c
p2514
aV\u9274\u5b9a\u7ed3\u8bba
p2515
aV\u8ba4\u5b9a
p2516
aV\u8bef\u4f24
p2517
aV\u7504\u522b
p2518
aV\u8d28\u8bc1
p2519
aV\u8bc1\u636e
p2520
asa(dp2521
g5
S'\xbc\xce\xba\xcc\xa1\xb0\xc9\xf1\xb0\xb8\xa1\xb1\xc4\xdc\xb7\xf1\xcf\xc8\xa1\xb0\xb5\xb6\xcf\xc2\xc1\xf4\xc8\xcb\xa1\xb1'
p2522
sg7
S'http://www.cnr.cn/newscenter/comment/latest/201405/t20140513_515495006.shtml'
p2523
sg9
(lp2524
V\u674e\u91d1\u6807
p2525
aV\u8bc1\u636e
p2526
aV\u5211\u8baf\u903c\u4f9b
p2527
aV17
p2528
aV\u8ba4\u5b9a
p2529
aV\u6b7b\u5211
p2530
aV\u6848\u4ef6
p2531
aV\u6b64\u6848
p2532
aV\u4e8c\u5ba1
p2533
aV\u590d\u6838
p2534
asa(dp2535
g5
S'\xc6\xc6\xb0\xb8\xc1\xa2\xb9\xa6\xca\xda\xbd\xb1\xc4\xdc\xb7\xf1\xb5\xc8\xb5\xbd\xc5\xd0\xbe\xf6\xba\xf3'
p2536
sg7
S'http://www.cnr.cn/newscenter/comment/latest/201405/t20140513_515494979.shtml'
p2537
sg9
(lp2538
V\u6848\u4ef6
p2539
aV\u7acb\u529f
p2540
aV\u529e\u6848
p2541
aV\u5e72\u8b66
p2542
aV\u7834\u83b7
p2543
aV\u8ba4\u5b9a
p2544
aV\u6cd5\u9662
p2545
aV\u674e\u91d1\u6807
p2546
aV15
p2547
aV\u516c\u5b89\u673a\u5173
p2548
asa(dp2549
g5
S'\xbc\xce\xba\xcc\xa1\xb0\xc9\xf1\xcc\xbd\xa1\xb1\xb5\xbd\xb5\xd7\xd3\xd0\xc3\xbb\xd3\xd0\xd0\xcc\xd1\xb6\xb1\xc6\xb9\xa9'
p2550
sg7
S'http://www.cnr.cn/newscenter/comment/latest/201405/t20140512_515485124.shtml'
p2551
sg9
(lp2552
V\u674e\u91d1\u6807
p2553
aV\u5211\u8baf\u903c\u4f9b
p2554
aV\u6848\u4ef6
p2555
aV\u7591\u6848
p2556
aV\u8bc1\u636e
p2557
aV\u662f\u5426
p2558
aV\u67e5\u660e
p2559
aV\u8001\u4eba
p2560
aV\u5609\u79be
p2561
aV\u8ba4\u5b9a
p2562
asasg63
g64
((lp2563
g2529
ag2526
atp2564
Rp2565
sa(dp2566
g2
(lp2567
(dp2568
g5
S'\xc9\xf3\xc5\xd0\xb2\xbb\xb6\xc0\xc1\xa2\xd4\xf5\xb8\xd2\xb8\xe6\xb7\xa8\xd4\xba\xb8\xb1\xd4\xba\xb3\xa4'
p2569
sg7
S'http://www.cnr.cn/newscenter/comment/latest/201405/t20140521_515557385.shtml'
p2570
sg9
(lp2571
V\u6cd5\u5b98
p2572
aV\u6cd5\u9662
p2573
aV\u53f8\u6cd5
p2574
aV\u884c\u653f\u5316
p2575
aV\u5ba1\u5224
p2576
aV\u9662\u957f
p2577
aV10
p2578
aV\u4e0b\u7ea7
p2579
aV\u519c\u4fe1\u793e
p2580
aV\u72ec\u7acb
p2581
asa(dp2582
g5
S'\xa1\xb0\xc3\xbf\xc4\xea\xbb\xd8\xbc\xd2\xd2\xbb\xb4\xce\xa1\xb1\xc5\xd0\xbe\xf6\xbe\xdf\xd3\xd0\xd1\xf9\xb1\xbe\xd2\xe2\xd2\xe5'
p2583
sg7
S'http://www.cnr.cn/newscenter/comment/latest/201405/t20140514_515504138.shtml'
p2584
sg9
(lp2585
V\u5224\u51b3
p2586
aV\u4eb2\u60c5
p2587
aV\u6cd5\u9662
p2588
aV\u7985\u57ce
p2589
aV\u5e38\u56de\u5bb6
p2590
aV\u6cd5\u5b98
p2591
aV\u53f8\u6cd5
p2592
aV\u4fdd\u969c
p2593
aV\u5b50\u5973
p2594
aV\u63a2\u89c6
p2595
asa(dp2596
g5
S'\xcb\xbe\xb7\xa8\xd3\xeb\xd3\xdf\xc2\xdb\xd4\xda\xb8\xb4\xb5\xa9\xcd\xb6\xb6\xbe\xb0\xb8\xc9\xcf\xd3\xa6\xc1\xbc\xd0\xd4\xbb\xa5\xb6\xaf'
p2597
sg7
S'http://www.cnr.cn/newscenter/comment/latest/201405/t20140509_515469414.shtml'
p2598
sg9
(lp2599
V\u8206\u8bba\u76d1\u7763
p2600
aV\u6797\u68ee
p2601
aV\u5ba1\u5224
p2602
aV\u590d\u65e6
p2603
aV\u6cd5\u9662
p2604
aV\u72ec\u7acb
p2605
aV\u53f8\u6cd5\u516c\u6b63
p2606
aV\u6295\u6bd2\u6848
p2607
aV\u6cd5\u5b98
p2608
aV\u8206\u8bba
p2609
asasg63
g64
((lp2610
g2591
ag2588
atp2611
Rp2612
sa(dp2613
g2
(lp2614
(dp2615
g5
S'\xa1\xb0\xd0\xd0\xc7\xd4\xca\xd3\xc6\xb5\xa1\xb1\xb5\xc4\xb5\xc0\xb5\xc2\xbf\xcc\xb6\xc8'
p2616
sg7
S'http://www.cnr.cn/newscenter/comment/latest/201405/t20140509_515469582.shtml'
p2617
sg9
(lp2618
V\u9053\u5fb7
p2619
aV\u5218\u5148\u751f
p2620
aV\u7f51\u53cb
p2621
aV\u8c34\u8d23
p2622
aV\u884c\u7a83
p2623
aV\u5c0f\u5077
p2624
aV\u89c6\u9891
p2625
aV\u884c\u4e3a
p2626
aV\u8206\u8bba
p2627
aV\u633a\u8eab\u800c\u51fa
p2628
asa(dp2629
g5
S'\xc8\xe7\xba\xce\xbf\xb4\xb4\xfd\xcd\xf8\xc9\xcf\xc6\xd8\xb9\xe2\xd0\xa1\xcd\xb5\xd0\xd0\xc7\xd4'
p2630
sg7
S'http://www.cnr.cn/newscenter/comment/latest/201405/t20140509_515469355.shtml'
p2631
sg9
(lp2632
V\u5c0f\u5077
p2633
aV\u884c\u7a83
p2634
aV\u7f51\u53cb
p2635
aV\u5931\u4e3b
p2636
aV\u66dd\u5149
p2637
aV\u633a\u8eab\u800c\u51fa
p2638
aV\u62cd\u6444
p2639
aV\u8096\u50cf\u6743
p2640
aV\u8fc7\u7a0b
p2641
aV\u9690\u79c1
p2642
asasg63
g64
((lp2643
g2633
ag2635
ag2634
ag2638
atp2644
Rp2645
sa(dp2646
g2
(lp2647
(dp2648
g5
S'\xb5\xd8\xb7\xbd\xd5\xfe\xb8\xae\xb3\xf6\xca\xd6\xa1\xb0\xbe\xc8\xc2\xa5\xca\xd0\xa1\xb1\xd3\xa6\xc8\xfd\xcb\xbc'
p2649
sg7
S'http://www.cnr.cn/newscenter/comment/latest/201405/t20140507_515452767.shtml'
p2650
sg9
(lp2651
V\u653f\u5e9c
p2652
aV\u623f\u5730\u4ea7
p2653
aV\u623f\u4ef7
p2654
aV\u51fa\u624b
p2655
aV\u5730\u65b9
p2656
aV\u6551\u5e02
p2657
aV\u7ecf\u6d4e
p2658
aV\u5546\u54c1\u623f
p2659
aV\u94dc\u9675\u5e02
p2660
aV\u5f00\u53d1\u5546
p2661
asa(dp2662
g5
S'\xbe\xc8\xca\xd0\xc4\xdc\xb7\xf1\xba\xb3\xb6\xaf\xb7\xbf\xbc\xdb\xcf\xf2\xcf\xc2\xd6\xae\xca\xc6'
p2663
sg7
S'http://www.cnr.cn/newscenter/comment/latest/201405/t20140507_515450711.shtml'
p2664
sg9
(lp2665
V\u623f\u5730\u4ea7
p2666
aV\u4f4f\u623f
p2667
aV\u697c\u5e02
p2668
aV\u5730\u65b9
p2669
aV\u4f4e\u8ff7
p2670
aV\u623f\u4ef7
p2671
aV\u8d2d\u623f
p2672
aV\u7a0e\u6536
p2673
aV\u516c\u79ef\u91d1
p2674
aV\u94dc\u9675\u5e02
p2675
asa(dp2676
g5
S'\xc8\xab\xb9\xfa\xd0\xd4\xb7\xbf\xbc\xdb\xb9\xd5\xb5\xe3\xbd\xab\xd6\xc1'
p2677
sg7
S'http://www.cnr.cn/newscenter/comment/latest/201404/t20140418_515321131.shtml'
p2678
sg9
(lp2679
V\u4e0b\u964d
p2680
aV\u4e00\u5b63\u5ea6
p2681
aV\u9762\u79ef
p2682
aV\u4f4f\u623f
p2683
aV\u623f\u4ef7
p2684
aV\u65b0\u5f00\u5de5
p2685
aV\u540c\u6bd4
p2686
aV\u4f4f\u5b85
p2687
aV\u623f\u5730\u4ea7
p2688
aV\u9700\u6c42
p2689
asasg63
g64
((lp2690
g2671
ag2666
atp2691
Rp2692
sa(dp2693
g2
(lp2694
(dp2695
g5
S'\xc8\xfd\xd1\xc7\xa1\xb0\xc8\xc3\xba\xec\xb0\xfc\xb7\xc9\xa1\xb1\xb5\xc4\xb9\xab\xc6\xbd\xd3\xeb\xd0\xa7\xc2\xca'
p2696
sg7
S'http://www.cnr.cn/newscenter/comment/latest/201405/t20140507_515450695.shtml'
p2697
sg9
(lp2698
V\u7ea2\u5305
p2699
aV\u53d1\u7ea2\u5305
p2700
aV\u4e09\u4e9a
p2701
aV\u516c\u5e73
p2702
aV\u8865\u8d34
p2703
aV\u7269\u4ef7\u8865\u8d34
p2704
aV\u6548\u7387
p2705
aV\u6237\u7c4d
p2706
aV\u53d1\u653e
p2707
aV\u5c45\u6c11
p2708
asa(dp2709
g5
S'\xb6\xd4\xc8\xfd\xd1\xc7\xb7\xa2\xba\xec\xb0\xfc\xb8\xc3\xb5\xe3\xb6\xe0\xc9\xd9\xd4\xde'
p2710
sg7
S'http://www.cnr.cn/newscenter/comment/latest/201405/t20140507_515450600.shtml'
p2711
sg9
(lp2712
V\u7269\u4ef7\u8865\u8d34
p2713
aV\u4e09\u4e9a
p2714
aV\u53d1\u653e
p2715
aV\u8865\u8d34
p2716
aV\u516c\u5171\u8d22\u653f
p2717
aV\u7269\u4ef7
p2718
aV\u653f\u5e9c
p2719
aV\u4e0d\u5408\u7406
p2720
aV\u5e73\u7b49\u6027
p2721
aV\u8d22\u653f
p2722
asasg63
g64
((lp2723
g2713
ag2716
ag2714
ag2715
atp2724
Rp2725
sa(dp2726
g2
(lp2727
(dp2728
g5
S'\xc6\xb8\xc8\xce\xd6\xc6\xb9\xab\xce\xf1\xd4\xb1\xb5\xc4\xa1\xb0\xc6\xc6\xa1\xb1\xd3\xeb\xa1\xb0\xc1\xa2\xa1\xb1'
p2729
sg7
S'http://www.cnr.cn/newscenter/comment/latest/201405/t20140508_515465327.shtml'
p2730
sg9
(lp2731
V\u516c\u52a1\u5458
p2732
aV\u8058\u4efb\u5236
p2733
aV\u94c1\u996d\u7897
p2734
aV\u4e00\u7834
p2735
aV\u65b0\u610f
p2736
aV\u7fa4\u4f17
p2737
aV\u5185\u6db5
p2738
aV\u4e0d\u987e
p2739
aV\u4e89\u8bba
p2740
aV\u5fc3\u601d
p2741
asa(dp2742
g5
S'\xc6\xb8\xc8\xce\xd6\xc6\xb9\xab\xce\xf1\xd4\xb1\xc8\xe7\xba\xce\xb2\xc5\xc4\xdc\xb3\xc9\xa1\xb0\xf6\xf3\xd3\xe3\xa1\xb1'
p2743
sg7
S'http://www.cnr.cn/newscenter/comment/latest/201405/t20140505_515432637.shtml'
p2744
sg9
(lp2745
V\u516c\u52a1\u5458
p2746
aV\u8058\u4efb\u5236
p2747
aV\u9cb6\u9c7c
p2748
aV30
p2749
aV\u8003\u6838
p2750
aV\u8003\u8bc4
p2751
aV\u9ad8\u85aa
p2752
aV\u5e74\u85aa
p2753
aV\u8058\u4efb
p2754
aV\u5b66\u5386
p2755
asa(dp2756
g5
S'\xc6\xb8\xb9\xab\xce\xf1\xd4\xb1\xa3\xac\xbd\xf8\xd2\xaa\xd1\xcf\xcd\xcb\xd2\xaa\xba\xdd'
p2757
sg7
S'http://www.cnr.cn/newscenter/comment/latest/201405/t20140505_515432627.shtml'
p2758
sg9
(lp2759
V\u8058\u4efb\u5236
p2760
aV\u516c\u52a1\u5458
p2761
aV\u8003\u6838
p2762
aV\u85aa\u916c
p2763
aV\u4e25\u683c
p2764
aV\u79d1\u5b66
p2765
aV\u679c\u65ad
p2766
aV60
p2767
aV30
p2768
aV\u73b0\u884c
p2769
asa(dp2770
g5
S'\xc6\xb8\xc8\xce\xd6\xc6\xb9\xab\xce\xf1\xd4\xb1\xbb\xee\xcb\xae\xbb\xb9\xca\xc7\xbb\xeb\xcb\xae'
p2771
sg7
S'http://www.cnr.cn/newscenter/comment/latest/201405/t20140505_515432619.shtml'
p2772
sg9
(lp2773
V\u516c\u52a1\u5458
p2774
aV\u8058\u4efb\u5236
p2775
aV\u8003\u6838
p2776
aV\u6d41\u4e8e\u5f62\u5f0f
p2777
aV\u4e49\u4e4c
p2778
aV\u62db\u8058
p2779
aV\u884c\u653f\u7f16\u5236
p2780
aV\u673a\u5236
p2781
aV\u94c1\u996d\u7897
p2782
aV\u89e3\u8058
p2783
asasg63
g64
((lp2784
g2746
ag2747
atp2785
Rp2786
sa(dp2787
g2
(lp2788
(dp2789
g5
S'\xc9\xf1\xc5\xa9\xbc\xdc\xbb\xfa\xb3\xa1\xce\xf0\xd4\xda\xd6\xca\xd2\xc9\xd6\xd0\xc7\xb0\xd0\xd0'
p2790
sg7
S'http://www.cnr.cn/newscenter/comment/latest/201405/t20140509_515469486.shtml'
p2791
sg9
(lp2792
V\u73af\u8bc4
p2793
aV\u8d28\u7591
p2794
aV\u673a\u573a
p2795
aV\u8206\u8bba
p2796
aV\u5f53\u5730
p2797
aV\u901a\u822a
p2798
aV\u516c\u793a
p2799
aV\u795e\u519c\u67b6
p2800
aV\u5efa\u8bbe
p2801
aV\u9879\u76ee
p2802
asa(dp2803
g5
S'\xc9\xf1\xc5\xa9\xbc\xdc\xbb\xfa\xb3\xa1\xb5\xc4\xbb\xb7\xc6\xc0\xb1\xa8\xb8\xe6\xd4\xda\xc4\xc4'
p2804
sg7
S'http://www.cnr.cn/newscenter/comment/latest/201405/t20140505_515431580.shtml'
p2805
sg9
(lp2806
V\u73af\u8bc4
p2807
aV\u795e\u519c\u67b6
p2808
aV\u673a\u573a
p2809
aV\u62a5\u544a
p2810
aV\u5f53\u5730
p2811
aV\u516c\u793a
p2812
aV\u79d8\u5bc6
p2813
aV\u5efa\u8bbe\u9879\u76ee
p2814
aV\u9879\u76ee
p2815
aV\u586b\u8c37
p2816
asasg63
g64
((lp2817
g2807
ag2815
ag2811
ag2808
ag2809
ag2812
atp2818
Rp2819
sa(dp2820
g2
(lp2821
(dp2822
g5
S'\xcb\xaf\xd7\xc5\xb5\xc4\xca\xa8\xd7\xd3\xd3\xeb\xd0\xd1\xc0\xb4\xb5\xc4\xca\xa8\xd7\xd3'
p2823
sg7
S'http://www.cnr.cn/newscenter/comment/latest/201406/t20140624_515717308.shtml'
p2824
sg9
(lp2825
V\u72ee\u5b50
p2826
aV\u6587\u660e
p2827
aV\u4e2d\u56fd
p2828
aV\u62ff\u7834\u4ed1
p2829
aV\u548c\u5e73
p2830
aV\u9192\u6765
p2831
aV\u8fd9\u5934
p2832
aV\u53d1\u5c55
p2833
aV\u4e16\u754c
p2834
aV\u4e2d\u534e\u6587\u660e
p2835
asa(dp2836
g5
S'\xcd\xd1\xb8\xe5\xbb\xd8\xbb\xf7\xcc\xf4\xd0\xc6\xb5\xc4\xb1\xb3\xba\xf3\xca\xc7\xd5\xbd\xc2\xd4\xb6\xa8\xc1\xa6'
p2837
sg7
S'http://www.cnr.cn/newscenter/comment/latest/201406/t20140603_515612305.shtml'
p2838
sg9
(lp2839
V\u54c8\u683c
p2840
aV\u7f8e\u56fd
p2841
aV\u6d89\u534e
p2842
aV\u4e2d\u56fd
p2843
aV\u6218\u7565
p2844
aV\u56fd\u9645\u8206\u8bba
p2845
aV\u8a00\u8bba
p2846
aV\u5b9a\u529b
p2847
aV\u5916\u4ea4
p2848
aV\u5d1b\u8d77
p2849
asa(dp2850
g5
S'\xc3\xc0\xb9\xfa\xbb\xb9\xc4\xdc\xd4\xd9\xb5\xb1\xa1\xb0\xca\xc0\xbd\xe7\xc1\xec\xd0\xe4\xa1\xb1\xd2\xbb\xb0\xd9\xc4\xea\xa3\xbf'
p2851
sg7
S'http://www.cnr.cn/newscenter/comment/latest/201405/t20140530_515602600.shtml'
p2852
sg9
(lp2853
V\u9738\u6743
p2854
aV\u7f8e\u56fd
p2855
aV\u4e16\u754c
p2856
aV\u8870\u843d
p2857
aV\u662f\u5426
p2858
aV\u672a\u6765
p2859
aV\u5965\u5df4\u9a6c
p2860
aV\u5d1b\u8d77
p2861
aV\u56fd\u5bb6
p2862
aV\u5c06\u4f1a
p2863
asa(dp2864
g5
S'\xc3\xc0\xb9\xfa\xd2\xaa\xd4\xd9\xc1\xec\xb5\xbc\xca\xc0\xbd\xe7100\xc4\xea\xa3\xac\xc6\xbe\xca\xb2\xc3\xb4'
p2865
sg7
S'http://www.cnr.cn/newscenter/comment/latest/201405/t20140530_515602594.shtml'
p2866
sg9
(lp2867
V\u7f8e\u56fd
p2868
aV\u4e16\u754c
p2869
aV\u5927\u56fd
p2870
aV\u534e\u76db\u987f
p2871
aV\u96be\u53d7
p2872
aV\u4e2d\u56fd
p2873
aV\u5d1b\u8d77
p2874
aV\u4fc4\u7f57\u65af
p2875
aV\u56fd\u5bb6
p2876
aV21
p2877
asa(dp2878
g5
S'\xd6\xd0\xb9\xfa\xcd\xe2\xbd\xbb\xc0\xfd\xcd\xe2\xc2\xdb\xca\xc7\xb8\xf6\xce\xb1\xc3\xfc\xcc\xe2'
p2879
sg7
S'http://www.cnr.cn/newscenter/comment/latest/201405/t20140504_515422404.shtml'
p2880
sg9
(lp2881
V\u4f8b\u5916
p2882
aV\u4e2d\u56fd
p2883
aV\u4e16\u754c
p2884
aV\u5916\u4ea4
p2885
aV\u897f\u65b9
p2886
aV\u5d1b\u8d77
p2887
aV\u5927\u56fd
p2888
aV\u56fd\u9645
p2889
aV\u7279\u6b8a\u6027
p2890
aV\u770b\u5f85
p2891
asasg63
g64
((lp2892
V\u53d1\u5c55
p2893
aV\u62ff\u7834\u4ed1
p2894
aV\u4e16\u754c
p2895
aV\u9192\u6765
p2896
aV\u548c\u5e73
p2897
aV\u72ee\u5b50
p2898
aV\u4e2d\u56fd
p2899
aV\u6587\u660e
p2900
aV\u8fd9\u5934
p2901
aV\u4e2d\u534e\u6587\u660e
p2902
atp2903
Rp2904
sa(dp2905
g2
(lp2906
(dp2907
g5
S'\xc8\xa1\xcf\xfb\xcf\xde\xb9\xba\xce\xde\xd0\xe8\xb3\xc9\xb9\xab\xbf\xaa\xb5\xc4\xc3\xd8\xc3\xdc'
p2908
sg7
S'http://www.cnr.cn/newscenter/comment/latest/201406/t20140611_515649908.shtml'
p2909
sg9
(lp2910
V\u9650\u8d2d
p2911
aV\u697c\u5e02
p2912
aV\u8c03\u63a7
p2913
aV\u5730\u65b9
p2914
aV\u53d6\u6d88
p2915
aV\u653f\u5e9c
p2916
aV\u653f\u7b56
p2917
aV\u6d88\u606f
p2918
aV\u900f\u660e
p2919
aV\u8d22\u7a0e
p2920
asa(dp2921
g5
S'\xb6\xd4\xc2\xa5\xca\xd0\xcf\xc2\xb5\xf8\xc7\xb0\xbe\xb0\xd0\xe8\xd7\xf6\xba\xc3\xd5\xfe\xb2\xdf\xd7\xbc\xb1\xb8'
p2922
sg7
S'http://www.cnr.cn/newscenter/comment/latest/201405/t20140506_515441719.shtml'
p2923
sg9
(lp2924
V\u697c\u5e02
p2925
aV\u4e0b\u8dcc
p2926
aV\u4e0b\u884c
p2927
aV\u7275\u626f
p2928
aV\u653f\u7b56
p2929
aV\u538b\u529b
p2930
aV\u5b8f\u89c2\u7ecf\u6d4e
p2931
aV\u6240\u671b
p2932
aV\u5e02\u573a
p2933
aV\u6b65\u5165
p2934
asa(dp2935
g5
S'\xb6\xd4\xb5\xd8\xb7\xbd\xbe\xc8\xca\xd0\xb5\xda\xd2\xbb\xc7\xb9\xb2\xbb\xd2\xaa\xcc\xab\xc3\xf4\xb8\xd0'
p2936
sg7
S'http://www.cnr.cn/newscenter/comment/latest/201404/t20140430_515405493.shtml'
p2937
sg9
(lp2938
V\u697c\u5e02
p2939
aV\u5357\u5b81
p2940
aV\u5730\u65b9
p2941
aV\u8c03\u63a7
p2942
aV\u5357\u5b81\u5e02
p2943
aV\u65b0\u653f
p2944
aV\u653f\u7b56
p2945
aV\u571f\u5730
p2946
aV\u4f9d\u8d56\u5ea6
p2947
aV\u5c45\u6c11\u5bb6\u5ead
p2948
asasg63
g64
((lp2949
g2929
ag2925
atp2950
Rp2951
sa(dp2952
g2
(lp2953
(dp2954
g5
S'\xbd\xbb\xd2\xd7\xcb\xf9\xb0\xe6ABS\xb1\xb3\xba\xf3\xb5\xc4\xa1\xb0\xcb\xab\xc9\xf3\xba\xcb\xa1\xb1\xbd\xc7\xc1\xa6'
p2955
sg7
S'http://www.cnr.cn/newscenter/comment/latest/201406/t20140618_515681522.shtml'
p2956
sg9
(lp2957
V\u8bc1\u5238\u5316
p2958
aV\u6b64\u5355
p2959
aV\u592e\u884c
p2960
aV\u8d44\u4ea7
p2961
aV\u4e2d\u503a
p2962
aV\u4ea4\u6613\u6240
p2963
aV\u5e73\u5b89
p2964
aV\u5f00\u6237
p2965
aV\u94f6\u884c
p2966
aV\u5e02\u573a
p2967
asa(dp2968
g5
S'\xd2\xf8\xd0\xd0\xd5\xd0\xc6\xb8\xc6\xf1\xc4\xdc\xb3\xc9"\xb2\xc6\xb8\xbb\xb4\xf3\xb1\xc8\xc6\xb4"'
p2969
sg7
S'http://www.cnr.cn/newscenter/comment/latest/201404/t20140430_515405602.shtml'
p2970
sg9
(lp2971
V\u94f6\u884c
p2972
aV\u5c31\u4e1a
p2973
aV\u6b67\u89c6
p2974
aV\u62db\u8058
p2975
aV\u8d44\u4ea7
p2976
aV\u5b9e\u4e60
p2977
aV\u5b9e\u4e60\u751f
p2978
aV\u5bb6\u5ead
p2979
aV\u6392\u961f
p2980
aV\u516c\u5e73
p2981
asa(dp2982
g5
S'\xc3\xbb\xcf\xeb\xb5\xbd\xc8\xa5\xd2\xf8\xd0\xd0\xca\xb5\xcf\xb0\xd2\xb2\xd2\xaa\xa1\xb0\xc6\xb4\xb5\xf9\xa1\xb1'
p2983
sg7
S'http://www.cnr.cn/newscenter/comment/latest/201404/t20140430_515405413.shtml'
p2984
sg9
(lp2985
V\u5b9e\u4e60
p2986
aV\u94f6\u884c
p2987
aVVIP
p2988
aV\u62db\u8058
p2989
aV\u5b9e\u4e60\u751f
p2990
aV\u5ba2\u6237
p2991
aV\u793e\u4f1a
p2992
aV\u8d44\u4ea7
p2993
aV\u7236\u6bcd
p2994
aV\u673a\u4f1a
p2995
asasg63
g64
((lp2996
g2976
ag2972
atp2997
Rp2998
sa(dp2999
g2
(lp3000
(dp3001
g5
S'\xb1\xf0\xbc\xb1\xd7\xc5\xce\xaa\xd1\xd3\xb3\xd9\xcd\xcb\xd0\xdd\xcf\xc2\xbd\xe1\xc2\xdb'
p3002
sg7
S'http://www.cnr.cn/newscenter/comment/latest/201404/t20140430_515405404.shtml'
p3003
sg9
(lp3004
V\u9000\u4f11
p3005
aV\u517b\u8001\u91d1
p3006
aV\u4e8f\u7a7a
p3007
aV\u5ef6\u8fdf
p3008
aV\u9000\u4f11\u5e74\u9f84
p3009
aV\u5e74\u8f7b\u4e00\u4ee3
p3010
aV\u517b\u8001
p3011
aV\u9000\u4f11\u91d1
p3012
aV\u7814\u7a76
p3013
aV\u8001\u5e74\u4eba
p3014
asa(dp3015
g5
S'\xd1\xf8\xc0\xcf\xce\xca\xcc\xe2\xb2\xbb\xca\xc7\xc1\xbd\xb4\xfa\xc8\xcb\xd6\xae\xbc\xe4\xb5\xc4\xc1\xe3\xba\xcd\xb2\xa9\xde\xc4'
p3016
sg7
S'http://www.cnr.cn/newscenter/comment/latest/201404/t20140430_515405354.shtml'
p3017
sg9
(lp3018
V\u8001\u5e74\u4eba
p3019
aV\u5e74\u8f7b\u4eba
p3020
aV\u9000\u4f11\u5e74\u9f84
p3021
aV\u63a8\u8fdf
p3022
aV\u517b\u8001\u4fdd\u9669
p3023
aV\u8d1f\u62c5
p3024
aV\u9000\u4f11
p3025
aV\u95ee\u9898
p3026
aV\u9000\u4f11\u91d1
p3027
aV\u653f\u7b56
p3028
asasg63
g64
((lp3029
g3027
ag3025
ag3019
ag3021
atp3030
Rp3031
sa(dp3032
g2
(lp3033
(dp3034
g5
S'\xa1\xb0\xb8\xdf\xd1\xaa\xd1\xb9\xa1\xb1\xb2\xbb\xc4\xdc\xb3\xc9\xd7\xef\xb7\xb8\xb5\xc4\xa1\xb0\xbc\xe0\xd3\xfc\xb8\xa3\xc0\xfb\xa1\xb1'
p3035
sg7
S'http://www.cnr.cn/newscenter/comment/latest/201406/t20140626_515731898.shtml'
p3036
sg9
(lp3037
V\u76d1\u5916\u6267\u884c
p3038
aV\u6682\u4e88
p3039
aV\u7f6a\u72af
p3040
aV\u5047\u91ca
p3041
aV\u51cf\u5211
p3042
aV\u76d1\u72f1
p3043
aV\u6536\u76d1
p3044
aV\u4fdd\u5916\u5c31\u533b
p3045
aV\u8fdd\u6cd5
p3046
aV\u5fc3\u810f\u75c5
p3047
asa(dp3048
g5
S'\xb4\xd3\xc9\xf3\xc5\xfa\xb5\xbd\xc9\xf3\xc5\xd0\xbc\xf5\xd0\xcc\xbc\xd9\xca\xcd\xbb\xd8\xb9\xe9\xcb\xbe\xb7\xa8'
p3049
sg7
S'http://www.cnr.cn/newscenter/comment/latest/201404/t20140430_515405538.shtml'
p3050
sg9
(lp3051
V\u5047\u91ca
p3052
aV\u51cf\u5211
p3053
aV\u6848\u4ef6
p3054
aV\u5ba1\u7406
p3055
aV\u6682\u4e88
p3056
aV\u76d1\u5916\u6267\u884c
p3057
aV\u516c\u5f00
p3058
aV\u53f8\u6cd5
p3059
aV\u4e00\u5f8b
p3060
aV\u516c\u793a
p3061
asa(dp3062
g5
S'\xb9\xab\xca\xbe\xbc\xf5\xd0\xcc\xbc\xd9\xca\xcd\xb0\xb8 \xd3\xd0\xd6\xfa\xd3\xda\xb6\xc5\xbe\xf8\xcf\xc2\xd2\xbb\xb8\xf6\xa1\xb0\xd5\xc5\xba\xa3\xa1\xb1'
p3063
sg7
S'http://www.cnr.cn/newscenter/comment/latest/201404/t20140430_515405347.shtml'
p3064
sg9
(lp3065
V\u51cf\u5211
p3066
aV\u5047\u91ca
p3067
aV\u53f8\u6cd5
p3068
aV\u6b63\u4e49
p3069
aV\u5f20\u6d77
p3070
aV\u821e\u5f0a
p3071
aV\u5b9e\u73b0
p3072
aV\u516c\u5f00\u5ba1\u7406
p3073
aV\u4e00\u5f8b
p3074
aV\u6848\u4ef6
p3075
asasg63
g64
((lp3076
g3052
ag3053
atp3077
Rp3078
sa(dp3079
g2
(lp3080
(dp3081
g5
S'\xd5\xc5\xc2\xfc\xd3\xf1\xa3\xac\xb2\xdd\xdd\xae\xce\xdb\xb5\xe3\xa3\xbf'
p3082
sg7
S'http://www.cnr.cn/newscenter/comment/latest/201405/t20140505_515431644.shtml'
p3083
sg9
(lp3084
V\u8349\u8393
p3085
aV\u5973\u795e
p3086
aV\u5f20\u66fc\u7389
p3087
aV\u97f3\u4e50\u8282
p3088
aV\u6c61\u70b9
p3089
aV\u821e\u53f0
p3090
aV\u81ea\u8d4f
p3091
aV\u6700\u8be5
p3092
aV20
p3093
aV\u516b\u7ea7
p3094
asa(dp3095
g5
S'\xb2\xdd\xdd\xae\xd2\xf4\xc0\xd6\xbd\xda\xd5\xb4\xc1\xcb\xd5\xc5\xc2\xfc\xd3\xf1\xb5\xc4\xb9\xe2\xa3\xbf'
p3096
sg7
S'http://www.cnr.cn/newscenter/comment/latest/201404/t20140430_515405316.shtml'
p3097
sg9
(lp3098
V\u97f3\u4e50\u8282
p3099
aV\u5973\u795e
p3100
aV\u5f20\u66fc\u7389
p3101
aV\u8349\u8393
p3102
aV\u6469\u767b
p3103
aV\u5f71\u8ff7
p3104
aV\u7968\u623f
p3105
aV\u5382\u724c
p3106
aVMaggie
p3107
aV\u76d6\u68fa\u8bba\u5b9a
p3108
asasg63
g64
((lp3109
g3102
ag3101
ag3100
ag3099
atp3110
Rp3111
sa(dp3112
g2
(lp3113
(dp3114
g5
S'\xbe\xba\xbc\xbc\xb1\xc8\xc8\xfc\xb2\xa2\xb7\xc7\xb7\xa8\xcd\xe2\xd6\xae\xb5\xd8'
p3115
sg7
S'http://www.cnr.cn/newscenter/comment/latest/201404/t20140430_515405384.shtml'
p3116
sg9
(lp3117
V\u6253\u4eba\u8005
p3118
aV\u6bd4\u8d5b
p3119
aV\u5f20\u5b9d\u5f3a
p3120
aV\u7ade\u6280
p3121
aV\u6cbb\u5b89\u7ba1\u7406
p3122
aV\u4f53\u80b2
p3123
aV\u88ab\u6253\u8005
p3124
aV\u8fdd\u53cd
p3125
aV\u4f24\u60c5
p3126
aV\u8d5b\u4e8b
p3127
asa(dp3128
g5
S'\xd2\xbb\xb3\xa1\xb1\xc8\xc8\xfc\xa3\xac\xcb\xad\xd4\xda\xca\xa7\xca\xd8'
p3129
sg7
S'http://www.cnr.cn/newscenter/comment/latest/201404/t20140429_515396954.shtml'
p3130
sg9
(lp3131
V\u5f20\u5b9d\u5f3a
p3132
aV\u7ec4\u59d4\u4f1a
p3133
aV\u6bd4\u8d5b
p3134
aV\u4f53\u80b2\u6bd4\u8d5b
p3135
aV\u8fd9\u573a
p3136
aV\u6253\u4eba\u8005
p3137
aV\u9009\u624b
p3138
aV\u8b66\u65b9
p3139
aV\u62a5\u6848
p3140
aV\u4f53\u80b2\u7cbe\u795e
p3141
asa(dp3142
g5
S'\xb2\xbb\xb3\xfd\xc8\xfc\xb3\xa1\xb1\xa9\xc1\xa6\xc4\xc4\xc0\xb4\xb9\xab\xc6\xbd\xbe\xba\xd5\xf9'
p3143
sg7
S'http://www.cnr.cn/newscenter/comment/latest/201404/t20140429_515396876.shtml'
p3144
sg9
(lp3145
V\u5f20\u5b9d\u5f3a
p3146
aV\u4f53\u80b2
p3147
aV\u6bb4\u6253
p3148
aV\u8b66\u65b9
p3149
aV\u7ec4\u59d4\u4f1a
p3150
aV\u6253\u4eba
p3151
aV\u9009\u624b
p3152
aV\u6253\u4eba\u8005
p3153
aV\u7834\u7a97
p3154
aV\u6076\u52a3
p3155
asasg63
g64
((lp3156
g3132
ag3137
atp3157
Rp3158
sa(dp3159
g2
(lp3160
(dp3161
g5
S'\xcb\xb5\xb9\xab\xce\xf1\xd4\xb1\xcc\xab\xc4\xd1\xb5\xb1\xbe\xcd\xd2\xaa\xb4\xc7\xd6\xb0\xc2\xf0'
p3162
sg7
S'http://www.cnr.cn/newscenter/comment/latest/201406/t20140624_515720248.shtml'
p3163
sg9
(lp3164
V\u516c\u52a1\u5458
p3165
aV\u5de5\u4f5c
p3166
aV\u8f9e\u804c
p3167
aV\u4ed6\u4eec
p3168
aV\u5982\u679c
p3169
aV\u5bf9\u4e8e
p3170
aV\u673a\u5173
p3171
aV\u804c\u4e1a
p3172
aV\u66f4\u52a0
p3173
aV\u5c31\u662f
p3174
asa(dp3175
g5
S'\xb8\xdf\xbc\xb6\xb1\xf0\xb9\xd9\xd4\xb1\xcd\xcb\xd0\xdd\xc8\xce\xd6\xb0\xb8\xfc\xd0\xe8\xb4\xd3\xd1\xcf\xcf\xde\xb6\xa8'
p3176
sg7
S'http://www.cnr.cn/newscenter/comment/latest/201406/t20140618_515681472.shtml'
p3177
sg9
(lp3178
V\u4efb\u804c
p3179
aV\u5b98\u5458
p3180
aV\u8fdd\u89c4
p3181
aV\u76f8\u5173
p3182
aV\u526f\u7701\u957f
p3183
aV\u5409\u6797\u7701
p3184
aV\u7701\u7ea7
p3185
aV\u9000\u4f11
p3186
aV\u4e09\u540d
p3187
aV\u4f01\u4e1a
p3188
asa(dp3189
g5
S'\xd3\xc9\xd6\xaa\xb3\xdc\xce\xc4\xbb\xaf\xb2\xfa\xc9\xfa\xb5\xc4\xc1\xaa\xcf\xeb'
p3190
sg7
S'http://www.cnr.cn/newscenter/comment/latest/201404/t20140429_515396477.shtml'
p3191
sg9
(lp3192
V\u77e5\u803b
p3193
aV\u97e9\u56fd
p3194
aV\u5f15\u548e\u8f9e\u804c
p3195
aV\u8f9e\u804c
p3196
aV\u6587\u5316
p3197
aV\u5b98\u5458
p3198
aV\u4e8b\u6545
p3199
aV\u6587\u5316\u6c1b\u56f4
p3200
aV\u81ea\u6740
p3201
aV\u90d1\u70d8\u539f
p3202
asa(dp3203
g5
S'\xb5\xd8\xb7\xbd\xb9\xab\xbf\xbc\xb1\xa8\xc3\xfb\xc8\xcb\xca\xfd\xbc\xf5\xc9\xd9\xb2\xbb\xca\xc7\xbb\xb5\xca\xc2'
p3204
sg7
S'http://www.cnr.cn/newscenter/comment/latest/201404/t20140428_515387025.shtml'
p3205
sg9
(lp3206
V\u516c\u52a1\u5458
p3207
aV\u5c97\u4f4d
p3208
aV\u4e07\u4eba
p3209
aV\u964d\u6e29
p3210
aV\u793e\u90e8
p3211
aV\u62a5\u8003
p3212
aV\u62db\u5f55
p3213
aV\u62a5\u540d
p3214
aV\u62db\u8003
p3215
aV\u4e0b\u6d77
p3216
asa(dp3217
g5
S'\xcf\xc2\xba\xa3\xb9\xd9\xd4\xb1\xc8\xa5\xc4\xc4\xc0\xef\xa1\xb0\xb8\xdf\xbe\xcd\xa1\xb1'
p3218
sg7
S'http://www.cnr.cn/newscenter/comment/latest/201404/t20140424_515363445.shtml'
p3219
sg9
(lp3220
V\u4e0b\u6d77
p3221
aV\u5b98\u5458
p3222
aV\u8425\u5229\u6027
p3223
aV\u57ce\u5efa
p3224
aV\u4efb\u804c
p3225
aV\u516c\u52a1\u5458\u6cd5
p3226
aV\u516c\u52a1\u5458
p3227
aV\u76f8\u5173
p3228
aV\u8f9e\u804c
p3229
aV\u623f\u4f01
p3230
asa(dp3231
g5
S'\xb3\xc7\xbd\xa8\xb9\xd9\xd4\xb1\xa1\xb0\xcf\xc2\xba\xa3\xa1\xb1\xc8\xa5\xb7\xbf\xc6\xf3\xa3\xac\xcb\xad\xc0\xb4\xb9\xdc'
p3232
sg7
S'http://www.cnr.cn/newscenter/comment/latest/201404/t20140424_515363071.shtml'
p3233
sg9
(lp3234
V\u5b98\u5458
p3235
aV\u4e0b\u6d77
p3236
aV\u8f9e\u804c
p3237
aV\u8fdd\u89c4
p3238
aV\u623f\u4f01
p3239
aV\u516c\u52a1\u5458
p3240
aV\u4efb\u804c
p3241
aV\u76f8\u5e94
p3242
aV\u57ce\u5efa
p3243
aV\u79bb\u804c
p3244
asasg63
g3164
sa(dp3245
g2
(lp3246
(dp3247
g5
S'\xd1\xce\xd2\xb5\xd7\xa8\xd3\xaa\xa3\xac\xca\xc7\xa1\xb0\xcf\xcc\xa1\xb1\xbb\xb9\xca\xc7\xa1\xb0\xb5\xad\xa1\xb1\xa3\xbf'
p3248
sg7
S'http://www.cnr.cn/newscenter/comment/latest/201404/t20140423_515355072.shtml'
p3249
sg9
(lp3250
V\u4e13\u8425
p3251
aV\u76d0\u4e1a
p3252
aV\u98df\u76d0
p3253
aV\u5e9f\u6b62
p3254
aV\u529e\u6cd5
p3255
aV\u8bb8\u53ef\u8bc1
p3256
aV\u6539\u9769
p3257
aV\u5236\u5ea6
p3258
aV\u8bef\u8bfb
p3259
aV\u56fd\u5bb6
p3260
asa(dp3261
g5
S'\xa1\xb0\xca\xb3\xd1\xce\xd7\xa8\xd3\xaa\xa1\xb1\xd2\xd1\xb5\xbd\xc8\xa1\xcf\xfb\xb5\xc4\xca\xb1\xba\xf2'
p3262
sg7
S'http://www.cnr.cn/newscenter/comment/latest/201404/t20140423_515354875.shtml'
p3263
sg9
(lp3264
V\u98df\u76d0
p3265
aV\u4e13\u8425
p3266
aV\u4e13\u8425\u6743
p3267
aV\u8bb8\u53ef\u8bc1
p3268
aV\u5e02\u573a
p3269
aV\u76d0\u4e1a
p3270
aV\u5236\u5ea6
p3271
aV\u4e0b\u653e
p3272
aV\u5784\u65ad
p3273
aV\u793e\u4f1a
p3274
asasg63
g64
((lp3275
g3270
ag3268
ag3266
ag3271
ag3265
atp3276
Rp3277
sa(dp3278
g2
(lp3279
(dp3280
g5
S'\xc7\xb9\xd0\xb5\xca\xb9\xd3\xc3\xb2\xbb\xd2\xaa\xbb\xac\xcf\xf2\xc1\xed\xd2\xbb\xb8\xf6\xbc\xab\xb6\xcb'
p3281
sg7
S'http://www.cnr.cn/newscenter/comment/latest/201405/t20140530_515602425.shtml'
p3282
sg9
(lp3283
V\u66b4\u6050
p3284
aV\u8d70\u706b
p3285
aV\u67aa\u652f
p3286
aV\u67aa\u68b0
p3287
aV\u5b50\u5f39
p3288
aV\u8b66\u5bdf
p3289
aV\u7528\u67aa
p3290
aV\u5f00\u67aa
p3291
aV\u5e7c\u513f\u56ed
p3292
aV\u4f7f\u7528
p3293
asa(dp3294
g5
S'\xd3\xd7\xb6\xf9\xd4\xb0\xc7\xb9\xd6\xa7\xd7\xdf\xbb\xf0\xc3\xf1\xbe\xaf\xb7\xb8\xc1\xcb\xb3\xa3\xca\xb6\xb4\xed\xce\xf3'
p3295
sg7
S'http://www.cnr.cn/newscenter/comment/latest/201405/t20140530_515602427.shtml'
p3296
sg9
(lp3297
V\u6c11\u8b66
p3298
aV\u67aa\u652f
p3299
aV\u7528\u67aa
p3300
aV\u8d70\u706b
p3301
aV\u4e8b\u4ef6
p3302
aV\u6c11\u4f17
p3303
aV\u5b89\u5168
p3304
aV\u8b66\u5bdf
p3305
aV\u7406\u5f53
p3306
aV\u6301\u67aa
p3307
asa(dp3308
g5
S'\xbe\xaf\xb2\xec\xb6\xaa\xc7\xb9\xd4\xf5\xc4\xdc\xb7\xa3\xbe\xc6\xc8\xfd\xb1\xad\xc1\xcb\xca\xc2'
p3309
sg7
S'http://www.cnr.cn/newscenter/comment/latest/201405/t20140526_515580635.shtml'
p3310
sg9
(lp3311
V\u67aa\u652f
p3312
aV\u8b66\u5bdf
p3313
aV\u8bb8\u6c5f
p3314
aV\u7528\u67aa
p3315
aV\u5408\u6c5f
p3316
aV\u914d\u67aa
p3317
aV\u8b66\u52a1
p3318
aV\u5f53\u4e8b
p3319
aV\u5931\u63a7
p3320
aV\u4e22\u67aa
p3321
asa(dp3322
g5
S'\xbe\xaf\xb2\xec\xc5\xe5\xc7\xb9\xca\xc7\xd6\xb4\xb7\xa8\xb5\xc4\xb1\xd8\xc8\xbb\xd1\xa1\xd4\xf1'
p3323
sg7
S'http://www.cnr.cn/newscenter/comment/latest/201404/t20140424_515363426.shtml'
p3324
sg9
(lp3325
V\u8b66\u5bdf
p3326
aV\u6c11\u8b66
p3327
aV\u4f69\u67aa
p3328
aV\u67aa\u652f
p3329
aV\u6388\u6743
p3330
aV\u7528\u67aa
p3331
aV\u5e26\u67aa
p3332
aV\u72af\u7f6a
p3333
aV\u6b66\u5668
p3334
aV\u5de1\u903b
p3335
asa(dp3336
g5
S'\xbe\xaf\xb2\xec\xc5\xe5\xc7\xb9\xd1\xf4\xb9\xe2\xbb\xaf \xb6\xd3\xce\xe9\xb2\xc5\xb9\xfd\xd3\xb2'
p3337
sg7
S'http://www.cnr.cn/newscenter/comment/latest/201404/t20140423_515354799.shtml'
p3338
sg9
(lp3339
V\u4f69\u67aa
p3340
aV\u8b66\u5bdf
p3341
aV\u67aa\u652f
p3342
aV\u6ee5\u7528
p3343
aV\u5de1\u903b
p3344
aV\u62c5\u5fe7
p3345
aV\u6c11\u4f17
p3346
aV\u72af\u7f6a
p3347
aV\u4ef6\u5957
p3348
aV\u8b66\u6c11
p3349
asasg63
g64
((lp3350
g3299
ag3305
atp3351
Rp3352
sa(dp3353
g2
(lp3354
(dp3355
g5
S'\xd6\xce\xc0\xed\xa1\xb0\xcc\xd8\xc8\xa8\xb3\xb5\xa1\xb1\xb8\xfc\xd0\xeb\xb8\xf9\xb3\xfd\xa1\xb0\xcc\xd8\xc8\xa8\xcb\xbc\xcf\xeb\xa1\xb1'
p3356
sg7
S'http://www.cnr.cn/newscenter/comment/latest/201404/t20140424_515363538.shtml'
p3357
sg9
(lp3358
V\u4e13\u6bb5
p3359
aV\u7279\u6743\u601d\u60f3
p3360
aV\u8b66\u7528
p3361
aV\u724c\u7167
p3362
aV\u8f66\u8f86
p3363
aV\u7279\u6743\u8f66
p3364
aV\u53d6\u6d88
p3365
aV\u53f7\u724c
p3366
aV\u516c\u5b89\u673a\u5173
p3367
aV\u6267\u884c\u516c\u52a1
p3368
asa(dp3369
g5
S'\xb8\xe6\xb1\xf0\xcc\xd8\xc8\xa8\xb3\xb5\xc5\xc6\xb2\xbb\xc4\xdc\xcd\xe6\xa1\xb0\xbc\xd9\xcb\xa4\xa1\xb1'
p3370
sg7
S'http://www.cnr.cn/newscenter/comment/latest/201404/t20140422_515345818.shtml'
p3371
sg9
(lp3372
V\u7279\u6743
p3373
aV\u7279\u6743\u8f66
p3374
aV\u8f66\u724c
p3375
aV\u53d6\u6d88
p3376
aV\u6839\u9664
p3377
aV\u53f7\u724c
p3378
aV\u5236\u5ea6
p3379
aV\u8f66\u8f86
p3380
aV\u673a\u5173
p3381
aV\u4e13\u6bb5
p3382
asasg63
g64
((lp3383
g3376
ag3378
ag3380
ag3382
ag3374
atp3384
Rp3385
sa(dp3386
g2
(lp3387
(dp3388
g5
S'\xc3\xc0\xc8\xd5\xcb\xbd\xcf\xe0\xca\xda\xca\xdc\xb5\xf6\xd3\xe3\xb5\xba\xca\xc7\xb1\xb3\xc5\xd1\xc0\xfa\xca\xb7'
p3389
sg7
S'http://www.cnr.cn/newscenter/comment/latest/201405/t20140504_515422393.shtml'
p3390
sg9
(lp3391
V\u65e5\u672c
p3392
aV\u9493\u9c7c\u5c9b
p3393
aV\u7f8e\u65e5
p3394
aV\u7f8e\u56fd
p3395
aV\u4e2d\u56fd
p3396
aV\u9886\u571f
p3397
aV\u5965\u5df4\u9a6c
p3398
aV\u5386\u53f2
p3399
aV\u5b89\u4fdd
p3400
aV\u6311\u8845
p3401
asa(dp3402
g5
S'\xd2\xd4\xca\xb7\xce\xaa\xbc\xf8 \xbf\xaa\xb4\xb4\xce\xb4\xc0\xb4'
p3403
sg7
S'http://www.cnr.cn/newscenter/comment/latest/201404/t20140426_515380378.shtml'
p3404
sg9
(lp3405
V\u4fb5\u534e
p3406
aV\u6863\u6848
p3407
aV\u5386\u53f2
p3408
aV\u65e5\u672c
p3409
aV\u548c\u5e73
p3410
aV\u6211\u4eec
p3411
aV\u4e2d\u534e\u6c11\u65cf
p3412
aV\u8fd8\u539f
p3413
aV\u4eba\u6c11
p3414
aV\u4fb5\u534e\u65e5\u519b
p3415
asa(dp3416
g5
S'\xbe\xb8\xb9\xfa\xc9\xf1\xc9\xe7\xb1\xb3\xba\xf3\xb5\xc4\xc8\xd5\xc3\xc0\xb9\xd8\xcf\xb5'
p3417
sg7
S'http://www.cnr.cn/newscenter/comment/latest/201404/t20140425_515373119.shtml'
p3418
sg9
(lp3419
V\u65e5\u672c
p3420
aV\u7f8e\u56fd
p3421
aV\u9756\u56fd\u795e\u793e
p3422
aV\u53c2\u62dc
p3423
aV\u5965\u5df4\u9a6c
p3424
aV\u9493\u9c7c\u5c9b
p3425
aV\u5b89\u500d
p3426
aV\u8bbf\u65e5
p3427
aV\u77db\u76fe
p3428
aV\u65e5\u7f8e
p3429
asa(dp3430
g5
S'\xb0\xb2\xb1\xb6\xd4\xda\xbe\xb8\xb9\xfa\xc9\xf1\xc9\xe7\xd5\xd2\xb5\xbd\xc4\xa7\xbb\xc3\xcf\xd6\xca\xb5\xd6\xf7\xd2\xe5'
p3431
sg7
S'http://www.cnr.cn/newscenter/comment/latest/201404/t20140422_515345235.shtml'
p3432
sg9
(lp3433
V\u5b89\u500d
p3434
aV\u9756\u56fd\u795e\u793e
p3435
aV\u53c2\u62dc
p3436
aV\u9756\u56fd
p3437
aV\u65e5\u672c
p3438
aV\u4f9b\u5949
p3439
aV\u796d\u54c1
p3440
aV\u53f2\u89c2
p3441
aV\u5386\u53f2
p3442
aV\u81ea\u536b\u6743
p3443
asa(dp3444
g5
S'\xce\xaa\xa1\xb0\xbb\xca\xb9\xfa\xca\xb7\xb9\xdb\xa1\xb1\xd5\xd0\xbb\xea\xba\xa6\xc1\xcb\xc8\xd5\xb1\xbe'
p3445
sg7
S'http://www.cnr.cn/newscenter/comment/latest/201404/t20140422_515345195.shtml'
p3446
sg9
(lp3447
V\u7687\u56fd
p3448
aV\u53f2\u89c2
p3449
aV\u65e5\u672c
p3450
aV\u9756\u56fd\u795e\u793e
p3451
aV\u53c2\u62dc
p3452
aV\u6559\u79d1\u4e66
p3453
aV\u5929\u7687
p3454
aV\u5386\u53f2
p3455
aV\u4fb5\u7565
p3456
aV\u4fb5\u7565\u6218\u4e89
p3457
asasg63
g64
((lp3458
g3409
ag3408
atp3459
Rp3460
sa(dp3461
g2
(lp3462
(dp3463
g5
S'\xb4\xf3\xd1\xa7\xb8\xc3\xd4\xf5\xc3\xb4\xce\xaa\xa1\xb0\xb6\xe1\xb5\xb6\xc9\xd9\xc4\xea\xa1\xb1\xd4\xb2\xc3\xce'
p3464
sg7
S'http://www.cnr.cn/newscenter/comment/latest/201406/t20140611_515650131.shtml'
p3465
sg9
(lp3466
V\u5f55\u53d6
p3467
aV\u62db\u751f
p3468
aV\u81ea\u4e3b
p3469
aV\u9ad8\u6821
p3470
aV\u593a\u5200
p3471
aV\u8003\u8bd5
p3472
aV\u5355\u72ec
p3473
aV\u89c1\u4e49\u52c7\u4e3a
p3474
aV\u5b66\u751f
p3475
aV\u514d\u8bd5
p3476
asa(dp3477
g5
S'\xc1\xf4\xd1\xa7\xc9\xfa\xbd\xc9\xb6\xe0\xc9\xd9\xd1\xa7\xb7\xd1\xcb\xad\xcb\xb5\xc1\xcb\xcb\xe3'
p3478
sg7
S'http://www.cnr.cn/newscenter/comment/latest/201404/t20140424_515363440.shtml'
p3479
sg9
(lp3480
V\u7559\u5b66\u751f
p3481
aV\u5927\u9646
p3482
aV\u5b66\u8d39
p3483
aV\u5b66\u751f
p3484
aV\u5927\u5b66
p3485
aV\u6765\u534e
p3486
aV\u5883\u5916
p3487
aV\u9ad8\u7b49\u6559\u80b2
p3488
aV\u9ad8\u6821
p3489
aV2.6
p3490
asa(dp3491
g5
S'\xc4\xfe\xcf\xc4\xb8\xdf\xd0\xa3\xd1\xa7\xb7\xd1\xb8\xc3\xa1\xb0\xd5\xc7\xa1\xb1\xc2\xf0\xa3\xbf'
p3492
sg7
S'http://www.cnr.cn/newscenter/comment/latest/201404/t20140421_515341818.shtml'
p3493
sg9
(lp3494
V\u5b81\u590f
p3495
aV\u5b66\u8d39
p3496
aV\u9ad8\u6821
p3497
aV\u8c03\u6574
p3498
aV2000
p3499
aV\u5b66\u751f
p3500
aV\u5b66\u6821
p3501
aV\u4eba\u624d
p3502
aV\u5730\u533a
p3503
aV\u9ad8\u7b49\u6559\u80b2
p3504
asasg63
g64
((lp3505
g3489
ag3484
atp3506
Rp3507
sa(dp3508
g2
(lp3509
(dp3510
g5
S'\xd6\xd0\xb7\xbd\xa1\xb0\xc0\xe2\xbe\xb5\xb1\xa8\xb8\xe6\xa1\xb1\xd4\xe7\xb3\xf6\xcc\xa8\xbb\xf2\xb8\xfc\xba\xc3'
p3511
sg7
S'http://www.cnr.cn/newscenter/comment/latest/201405/t20140527_515586779.shtml'
p3512
sg9
(lp3513
V\u7f8e\u56fd
p3514
aV\u6211\u4eec
p3515
aV\u7f51\u7edc\u5b89\u5168
p3516
aV\u65af\u8bfa
p3517
aV\u5168\u7403
p3518
aV\u76d1\u542c
p3519
aV\u8206\u8bba
p3520
aV\u7f51\u7edc
p3521
aV\u4e2d\u56fd
p3522
aV\u56fd\u5bb6
p3523
asa(dp3524
g5
S'\xcf\xf2\xc3\xc0\xb9\xfa\xcd\xf8\xc2\xe7\xb0\xb2\xc8\xab\xc9\xf3\xb2\xe9\xd6\xc6\xbf\xb4\xc6\xeb'
p3525
sg7
S'http://www.cnr.cn/newscenter/comment/latest/201405/t20140523_515572952.shtml'
p3526
sg9
(lp3527
V\u5ba1\u67e5
p3528
aV\u7f51\u7edc\u5b89\u5168
p3529
aV\u5b89\u5168
p3530
aV\u56fd\u5bb6
p3531
aV\u7f8e\u56fd
p3532
aV\u4e2d\u56fd
p3533
aV\u7f51\u7edc
p3534
aV\u7cfb\u7edf
p3535
aV\u7f51\u7edc\u7a7a\u95f4
p3536
aV\u4e3e\u63aa
p3537
asa(dp3538
g5
S'\xbb\xd8\xb9\xe9\xd4\xc4\xb6\xc1\xca\xc7\xd7\xd4\xce\xd2\xbe\xc8\xca\xea'
p3539
sg7
S'http://www.cnr.cn/newscenter/comment/latest/201404/t20140421_515337126.shtml'
p3540
sg9
(lp3541
V\u9605\u8bfb
p3542
aV\u8bfb\u4e66
p3543
aV\u4e66\u5e97
p3544
aV\u5371\u673a
p3545
aV\u56fe\u4e66\u5e02\u573a
p3546
aV\u4e2d\u56fd
p3547
aV\u5df4\u8bfa
p3548
aV\u56fd\u6c11
p3549
aV\u7f51\u7edc
p3550
aV\u6d4f\u89c8
p3551
asasg63
g64
((lp3552
g3533
ag3534
atp3553
Rp3554
sa(dp3555
g2
(lp3556
(dp3557
g5
S'\xc9\xcf\xba\xa3\xb9\xfa\xbc\xca\xb5\xe7\xd3\xb0\xbd\xda\xa3\xba\xd3\xc3\xbe\xad\xb5\xe4\xb6\xd4\xbf\xb9\xca\xb1\xbc\xe4'
p3558
sg7
S'http://www.cnr.cn/newscenter/comment/latest/201406/t20140623_515708454.shtml'
p3559
sg9
(lp3560
V\u7535\u5f71\u8282
p3561
aV\u7535\u5f71
p3562
aV\u5f71\u8ff7
p3563
aV\u7ecf\u5178
p3564
aV\u5c55\u6620
p3565
aV\u4e0a\u6d77
p3566
aV\u535c\u4e07\u82cd
p3567
aV\u91d1\u7235
p3568
aV\u89c2\u4f17
p3569
aV\u5f71\u7247
p3570
asa(dp3571
g5
S'\xd1\xb8\xc0\xd7\xa1\xb0\xb4\xd3\xc1\xbc\xa1\xb1\xa3\xbf\xb9\xdb\xd6\xda\xce\xb4\xc0\xb4\xd2\xaa\xbf\xb4\xb8\xfc\xb6\xe0\xb9\xe3\xb8\xe6\xc1\xcb'
p3572
sg7
S'http://www.cnr.cn/newscenter/comment/latest/201406/t20140606_515628434.shtml'
p3573
sg9
(lp3574
V\u76d7\u7248
p3575
aV\u7248\u6743
p3576
aV\u8fc5\u96f7
p3577
aV\u7f51\u7ad9
p3578
aV\u89c2\u4f17
p3579
aV\u89c6\u9891
p3580
aV\u4e70\u5355
p3581
aV\u5267\u96c6
p3582
aV\u5f15\u8fdb
p3583
aV\u7535\u5f71
p3584
asa(dp3585
g5
S'\xba\xec\xcc\xba\xd0\xe3\xc6\xb4\xb8\xdf\xb4\xf3\xc9\xcf\xd2\xd1\xbe\xad\xca\xe4\xc1\xcb'
p3586
sg7
S'http://www.cnr.cn/newscenter/comment/latest/201405/t20140516_515522994.shtml'
p3587
sg9
(lp3588
V\u5973\u660e\u661f
p3589
aV\u7ea2\u6bef
p3590
aV\u7535\u5f71\u8282
p3591
aV\u7535\u5f71
p3592
aV\u5979\u4eec
p3593
aV\u6587\u827a
p3594
aV\u6bd4\u62fc
p3595
aV\u621b\u7eb3
p3596
aV\u8bc4\u59d4
p3597
aV\u7247\u5b50
p3598
asa(dp3599
g5
S'\xba\xab\xbe\xe7\xb2\xe5\xc9\xcf\xa1\xb0\xcf\xeb\xcf\xf3\xb5\xc4\xb3\xe1\xb0\xf2\xa1\xb1'
p3600
sg7
S'http://www.cnr.cn/newscenter/comment/latest/201405/t20140514_515504070.shtml'
p3601
sg9
(lp3602
V\u5e7b\u60f3
p3603
aV\u97e9\u5267
p3604
aV\u89c2\u4f17
p3605
aV\u5143\u7d20
p3606
aV\u60f3\u8c61\u529b
p3607
aV\u7535\u5f71
p3608
aV\u5f71\u50cf
p3609
aV\u6b27\u9edb\u8389
p3610
aV\u9752\u6625
p3611
aV\u8d8a\u6765\u8d8a
p3612
asa(dp3613
g5
S'\xd6\xc2\xa1\xb0\xc7\xe0\xb4\xba\xa1\xb1\xb5\xe7\xd3\xb0\xb2\xbb\xb1\xd8\xbe\xd0\xc4\xe0\xd3\xda\xd0\xa3\xd4\xb0'
p3614
sg7
S'http://www.cnr.cn/newscenter/comment/latest/201405/t20140508_515460579.shtml'
p3615
sg9
(lp3616
V\u9752\u6625
p3617
aV\u540c\u684c
p3618
aV\u9ad8\u6653\u677e
p3619
aV\u60c5\u7eea
p3620
aV\u89c2\u4f17
p3621
aV\u7535\u5f71
p3622
aV\u9752\u6625\u7247
p3623
aV\u53d9\u4e8b
p3624
aV\u4e3b\u89d2
p3625
aV\u5929\u7834
p3626
asa(dp3627
g5
S'\xb0\xae\xb5\xe7\xd3\xb0\xb2\xbb\xc5\xc2\xb7\xd1\xd0\xac\xb5\xd7'
p3628
sg7
S'http://www.cnr.cn/newscenter/comment/latest/201404/t20140417_515313888.shtml'
p3629
sg9
(lp3630
V\u7535\u5f71\u8282
p3631
aV\u5f71\u7247
p3632
aV\u7535\u5f71
p3633
aV\u56fd\u9645
p3634
aV\u5317\u4eac
p3635
aV\u672c\u5c4a
p3636
aV\u89c2\u4f17
p3637
aV\u5c55\u6620
p3638
aV\u5f80\u5c4a
p3639
aV\u5c55\u5546
p3640
asasg63
g64
((lp3641
g3579
ag3584
atp3642
Rp3643
sa.