(lp0
(dp1
S'articles'
p2
(lp3
(dp4
S'title'
p5
S'\xb9\xfa\xc6\xbd\xa3\xba\xc7\xbf\xbb\xaf\xbf\xb4\xc6\xeb\xd2\xe2\xca\xb6 \xb5\xb1\xba\xc3\xd1\xcf\xca\xb5\xb1\xed\xc2\xca'
p6
sS'link'
p7
S'http://www.cnr.cn/newscenter/comment/latest/20151231/t20151231_520994412.shtml'
p8
sS'tags'
p9
(lp10
V\u770b\u9f50
p11
aV\u4e09\u4e25
p12
aV\u4e09\u5b9e
p13
aV\u515a\u4e2d\u592e
p14
aV\u5168\u515a
p15
aV\u4e2d\u592e\u653f\u6cbb\u5c40
p16
aV\u8868\u7387
p17
aV\u7387\u4e0b
p18
aV\u6807\u6746
p19
aV\u4e60\u8fd1\u5e73
p20
asa(dp21
g5
S'\xc8\xcb\xc3\xf1\xc8\xd5\xb1\xa8\xc6\xc0\xc2\xdb\xd4\xb1\xa3\xba\xc8\xab\xb5\xb3\xd2\xaa\xcf\xf2\xd6\xd0\xd1\xeb\xbf\xb4\xc6\xeb'
p22
sg7
S'http://www.cnr.cn/newscenter/comment/latest/20151230/t20151230_520977625.shtml'
p23
sg9
(lp24
V\u4e09\u4e25
p25
aV\u4e09\u5b9e
p26
aV\u770b\u9f50
p27
aV\u4e2d\u592e\u653f\u6cbb\u5c40
p28
aV\u8df5\u884c
p29
aV\u4e2d\u592e
p30
aV\u5168\u515a
p31
aV\u7387\u5148\u5782\u8303
p32
aV\u4f53\u73b0
p33
aV\u9f50\u5219
p34
asasS'tags'
p35
c__builtin__
set
p36
((lp37
g28
ag31
ag27
ag25
ag26
atp38
Rp39
sa(dp40
g2
(lp41
(dp42
g5
S'\xa1\xb0\xe6\xe4\xd5\xbe\xca\xbd\xa1\xb1\xd1\xf8\xc0\xcf\xc8\xe7\xba\xce\xbd\xd0\xba\xc3\xd3\xd6\xbd\xd0\xd7\xf9'
p43
sg7
S'http://www.cnr.cn/newscenter/comment/latest/20151224/t20151224_520906426.shtml'
p44
sg9
(lp45
V\u517b\u8001
p46
aV\u670d\u52a1
p47
aV\u6a21\u5f0f
p48
aV\u9a7f\u7ad9
p49
aV\u8001\u5e74\u4eba
p50
aV\u517b\u8001\u9662
p51
aV\u501f\u9274
p52
aV\u5c45\u5bb6
p53
aV\u5bb6\u56ed
p54
aV\u6536\u8d39
p55
asa(dp56
g5
S'\xb6\xe0\xb7\xbd\xca\xa9\xc1\xa6\xa3\xac\xbd\xa8\xc9\xe8\xa1\xb0\xc3\xbb\xd3\xd0\xce\xa7\xc7\xbd\xb5\xc4\xd1\xf8\xc0\xcf\xd4\xba\xa1\xb1'
p57
sg7
S'http://www.cnr.cn/newscenter/comment/latest/20151221/t20151221_520863864.shtml'
p58
sg9
(lp59
V\u517b\u8001
p60
aV\u670d\u52a1
p61
aV\u5c45\u5bb6
p62
aV\u8d44\u52a9
p63
aV\u8001\u5e74\u4eba
p64
aV\u793e\u533a
p65
aV20
p66
aV30
p67
aV\u63d0\u4f9b
p68
aV\u653f\u5e9c
p69
asa(dp70
g5
S'\xc1\xa2\xb7\xa8\xbd\xfb\xa1\xb0\xbf\xd0\xc0\xcf\xa1\xb1 \xca\xc7\xb7\xf1\xb6\xe0\xb4\xcb\xd2\xbb\xbe\xd9'
p71
sg7
S'http://www.cnr.cn/newscenter/comment/latest/20151217/t20151217_520827174.shtml'
p72
sg9
(lp73
V\u5b50\u5973
p74
aV\u7236\u6bcd
p75
aV\u7acb\u6cd5
p76
aV\u8001\u5e74\u4eba
p77
aV\u6210\u5e74
p78
aV\u793e\u4f1a
p79
aV\u751a\u81f3
p80
aV\u8d44\u52a9
p81
aV\u5b89\u5fbd\u7701
p82
aV\u517b\u8001
p83
asa(dp84
g5
S'\xc0\xcf\xc8\xcb\xb1\xbb\xc9\xe1\xd3\xd1\xb4\xf2\xcb\xc0\xbe\xb4\xc0\xcf\xd4\xba\xc4\xd1\xcd\xd1\xc6\xe4\xd4\xf0'
p85
sg7
S'http://www.cnr.cn/newscenter/comment/latest/20151013/t20151013_520128122.shtml'
p86
sg9
(lp87
V\u674e\u798f
p88
aV\u76d1\u62a4\u4eba
p89
aV\u8001\u5e74\u4eba
p90
aV\u517b\u8001
p91
aV\u656c\u8001\u9662
p92
aV\u6c11\u4e8b\u884c\u4e3a
p93
aV\u81ea\u7406
p94
aV\u8001\u4eba
p95
aV\u80fd\u529b
p96
aV\u6b7b\u56e0
p97
asasg35
g36
((lp98
g60
ag64
atp99
Rp100
sa(dp101
g2
(lp102
(dp103
g5
S'\xa1\xb0\xb4\xf2\xcb\xc0\xcd\xb5\xb9\xb7\xd4\xf4\xa1\xb1\xb5\xc4\xa1\xb0\xc3\xf1\xd6\xda\xd6\xae\xc5\xad\xa1\xb1\xc8\xe7\xba\xce\xbb\xaf\xbd\xe2'
p104
sg7
S'http://www.cnr.cn/newscenter/comment/latest/20151218/t20151218_520842165.shtml'
p105
sg9
(lp106
V\u5077\u72d7\u8005
p107
aV\u6c11\u4f17
p108
aV\u72d7\u8d3c
p109
aV\u5f53\u5730
p110
aV\u66b4\u6253
p111
aV\u6267\u6cd5
p112
aV\u4e24\u540d
p113
aV\u751a\u81f3
p114
aV\u7537\u5b50
p115
aV\u6cd5\u6cbb
p116
asa(dp117
g5
S'\xd1\xe0\xd5\xd4\xcd\xed\xb1\xa8\xa3\xba\xa1\xb0\xb4\xf2\xcb\xc0\xcd\xb5\xb9\xb7\xd4\xf4\xa1\xb1\xb5\xc4\xb2\xd0\xb1\xa9\xb4\xd3\xba\xce\xb6\xf8\xc0\xb4'
p118
sg7
S'http://www.cnr.cn/newscenter/comment/latest/20151217/t20151217_520828073.shtml'
p119
sg9
(lp120
V\u72d7\u8d3c
p121
aV\u6c11\u4f17
p122
aV\u5f53\u5730
p123
aV\u66b4\u6253
p124
aV\u6267\u6cd5
p125
aV\u4e24\u540d
p126
aV\u6751\u6c11
p127
aV\u5077\u72d7
p128
aV\u751a\u81f3
p129
aV\u7537\u5b50
p130
asasg35
g36
((lp131
g125
ag126
ag122
ag123
ag124
ag130
ag121
ag129
atp132
Rp133
sa(dp134
g2
(lp135
(dp136
g5
S'\xd2\xcb\xbe\xd3\xb2\xc5\xca\xc7\xcf\xd6\xb4\xfa\xb3\xc7\xca\xd0\xb5\xc4\xb5\xd7\xc9\xab'
p137
sg7
S'http://www.cnr.cn/newscenter/comment/latest/20151224/t20151224_520906416.shtml'
p138
sg9
(lp139
V\u57ce\u5e02
p140
aV\u5b9c\u5c45
p141
aV\u5de5\u4f5c
p142
aV\u4f1a\u8bae
p143
aV\u505a\u597d
p144
aV\u8d8a\u6765\u8d8a
p145
aV\u4eba\u6c11
p146
aV\u4ee5\u4eba\u4e3a\u672c
p147
aV\u53d1\u5c55
p148
aV\u575a\u6301
p149
asa(dp150
g5
S'\xc8\xc3\xb5\xb3\xb5\xc4\xc6\xec\xd6\xc4\xd4\xda\xb5\xb3\xd0\xa3\xc9\xcf\xbf\xd5\xb8\xdf\xb8\xdf\xc6\xae\xd1\xef'
p151
sg7
S'http://www.cnr.cn/newscenter/comment/latest/20151214/t20151214_520788008.shtml'
p152
sg9
(lp153
V\u515a\u6821
p154
aV\u6559\u80b2
p155
aV\u515a\u6027
p156
aV\u59d3\u515a
p157
aV\u575a\u6301
p158
aV\u5de5\u4f5c
p159
aV\u653f\u6cbb
p160
aV\u65d7\u5e1c
p161
aV\u7406\u8bba
p162
aV\u9886\u5bfc
p163
asa(dp164
g5
S'\xb7\xa2\xbb\xd3\xb5\xb3\xd0\xa3\xbd\xcc\xd3\xfd\xb2\xb9\xb8\xc6\xd7\xb3\xb9\xc7\xa1\xa2\xc1\xa2\xb8\xf9\xb9\xcc\xb1\xbe\xd7\xf7\xd3\xc3'
p165
sg7
S'http://www.cnr.cn/newscenter/comment/latest/20151214/t20151214_520787981.shtml'
p166
sg9
(lp167
V\u515a\u6821
p168
aV\u59d3\u515a
p169
aV\u5e72\u90e8
p170
aV\u6559\u80b2
p171
aV\u5de5\u4f5c
p172
aV\u575a\u6301
p173
aV\u57f9\u8bad
p174
aV\u653f\u6cbb
p175
aV\u515a\u6027
p176
aV\u65d7\u5e1c
p177
asasg35
g36
((lp178
g159
ag158
atp179
Rp180
sa(dp181
g2
(lp182
(dp183
g5
S'\xbf\xbc\xd1\xd0\xd0\xb9\xcc\xe2\xbe\xcd\xd3\xa6\xd6\xd8\xbf\xbc'
p184
sg7
S'http://www.cnr.cn/newscenter/comment/latest/20151230/t20151230_520977360.shtml'
p185
sg9
(lp186
V\u6cc4\u9898
p187
aV\u91cd\u8003
p188
aV\u590d\u8bd5
p189
aV\u8003\u8bd5
p190
aV\u8003\u7814
p191
aV\u6559\u80b2\u90e8
p192
aV\u8003\u751f
p193
aV\u4f5c\u5f0a\u8005
p194
aV\u6cc4\u9898\u6848
p195
aV\u516c\u5e73
p196
asa(dp197
g5
S'\xa1\xb0\xca\xd4\xcc\xe2\xc0\xd7\xcd\xac\xa1\xb1\xb8\xc3\xb2\xbb\xb8\xc3\xc8\xc3\xbf\xbc\xc9\xfa\xc2\xf1\xb5\xa5'
p198
sg7
S'http://www.cnr.cn/newscenter/comment/latest/20151214/t20151214_520788031.shtml'
p199
sg9
(lp200
V\u96f7\u540c
p201
aV\u8003\u8bd5
p202
aV\u57f9\u8bad
p203
aV\u8bd5\u9898
p204
aV\u6d77\u57ce\u5e02
p205
aV\u8003\u751f
p206
aV\u6a21\u62df\u9898
p207
aV\u4e8b\u4e1a\u5355\u4f4d
p208
aV\u6cc4\u9898
p209
aV\u8fbd\u5b81\u7701
p210
asa(dp211
g5
S'\xbe\xa9\xbb\xaa\xca\xb1\xb1\xa8\xa3\xba\xa1\xb0\xca\xd4\xcc\xe2\xc0\xd7\xcd\xac\xa1\xb1\xb8\xc3\xb2\xbb\xb8\xc3\xc8\xc3\xbf\xbc\xc9\xfa\xc2\xf1\xb5\xa5'
p212
sg7
S'http://www.cnr.cn/newscenter/comment/latest/20151214/t20151214_520787526.shtml'
p213
sg9
(lp214
V\u96f7\u540c
p215
aV\u8003\u8bd5
p216
aV\u57f9\u8bad
p217
aV\u8bd5\u9898
p218
aV\u6d77\u57ce\u5e02
p219
aV\u8003\u751f
p220
aV\u6a21\u62df\u9898
p221
aV\u4e8b\u4e1a\u5355\u4f4d
p222
aV\u6cc4\u9898
p223
aV\u8fbd\u5b81\u7701
p224
asa(dp225
g5
S'\xbc\xdd\xd5\xd5\xd7\xd4\xd1\xa7\xd7\xd4\xbf\xbc\xa3\xac\xbc\xe0\xb9\xdc\xb5\xc4\xb5\xa5\xd7\xd3\xb8\xfc\xd6\xd8'
p226
sg7
S'http://www.cnr.cn/newscenter/comment/latest/20151211/t20151211_520761477.shtml'
p227
sg9
(lp228
V\u9a7e\u9a76
p229
aV\u653e\u6743
p230
aV\u57f9\u8bad
p231
aV\u653f\u5e9c
p232
aV\u793e\u4f1a
p233
aV\u8003\u8bd5
p234
aV\u8fd8\u6743
p235
aV\u9a7e\u8003
p236
aV\u76d1\u7ba1
p237
aV\u5e02\u573a
p238
asa(dp239
g5
S'\xb9\xfa\xbf\xbc\xb1\xa8\xc3\xfb\xb7\xd1\xb2\xbb\xb1\xd8\xc7\xbf\xc7\xf3\xc8\xab\xb9\xfa\xcd\xac\xbc\xdb'
p240
sg7
S'http://www.cnr.cn/newscenter/comment/latest/20151109/t20151109_520442732.shtml'
p241
sg9
(lp242
V\u56fd\u8003
p243
aV\u62a5\u540d\u8d39
p244
aV\u7f34\u8d39
p245
aV\u7edf\u4e00
p246
aV\u540c\u4ef7
p247
aV\u8003\u52a1
p248
aV\u6210\u672c
p249
aV\u8003\u751f
p250
aV\u62a5\u540d
p251
aV\u8003\u8bd5
p252
asasg35
g36
((lp253
g206
ag202
ag209
atp254
Rp255
sa(dp256
g2
(lp257
(dp258
g5
S'\xa1\xb0\xd0\xae\xca\xac\xd2\xaa\xbc\xdb\xa1\xb1\xb2\xbb\xc4\xdc\xd2\xd4\xd4\xb1\xb9\xa4\xc0\xeb\xd6\xb0\xc1\xcb\xca\xc2'
p259
sg7
S'http://www.cnr.cn/newscenter/comment/latest/20151216/t20151216_520811388.shtml'
p260
sg9
(lp261
V\u6253\u635e
p262
aV\u6c34\u7535\u7ad9
p263
aV\u5c38\u4f53
p264
aV\u901d\u8005
p265
aV\u631f\u5c38
p266
aV\u627f\u62c5
p267
aV\u8981\u4ef7
p268
aV\u5bb6\u5c5e
p269
aV\u4e49\u52a1
p270
aV\u9057\u4f53
p271
asa(dp272
g5
S'\xb1\xd8\xd0\xeb\xb4\xf2\xc6\xc6\xa1\xb0\xd0\xae\xca\xac\xd2\xaa\xbc\xdb\xa1\xb1\xb5\xc4\xa1\xb0\xd0\xd0\xb9\xe6\xa1\xb1'
p273
sg7
S'http://www.cnr.cn/newscenter/comment/latest/20151209/t20151209_520738281.shtml'
p274
sg9
(lp275
V\u6253\u635e
p276
aV\u9057\u4f53
p277
aV\u8981\u4ef7
p278
aV\u6e14\u6c11
p279
aV\u631f\u5c38
p280
aV\u6d88\u9632
p281
aV\u6551\u63f4
p282
aV\u5c38\u8d39
p283
aV\u8d39\u7528
p284
aV\u884c\u4e3a
p285
asasg35
g36
((lp286
g277
ag276
ag278
ag280
atp287
Rp288
sa(dp289
g2
(lp290
(dp291
g5
S'\xb1\xf0\xb1\xbb\xc5\xf3\xd3\xd1\xc8\xa6\xb9\xbf\xbd\xf4\xc1\xcb\xc9\xfa\xbb\xee'
p292
sg7
S'http://www.cnr.cn/newscenter/comment/latest/20151210/t20151210_520752333.shtml'
p293
sg9
(lp294
V\u4fe1\u606f
p295
aV\u670b\u53cb\u5708
p296
aV\u793e\u4ea4
p297
aV\u6211\u4eec
p298
aV\u7f8e\u98df
p299
aV\u4e00\u6761
p300
aV\u6216\u8bb8
p301
aV\u5197\u4f59
p302
aV\u70b9\u8d5e
p303
aV\u670b\u53cb
p304
asa(dp305
g5
S'\xa1\xb0\xd6\xf7\xd2\xaa\xbf\xb4\xc6\xf8\xd6\xca\xa1\xb1\xce\xaa\xba\xce\xc4\xdc\xb7\xe7\xc3\xd2\xc5\xf3\xd3\xd1\xc8\xa6'
p306
sg7
S'http://www.cnr.cn/newscenter/comment/latest/20151209/t20151209_520738274.shtml'
p307
sg9
(lp308
V\u6e38\u620f
p309
aV\u793e\u4ea4
p310
aV\u81ea\u62cd\u7167
p311
aV\u670b\u53cb\u5708
p312
aV\u70b9\u8d5e
p313
aV\u7167\u7247
p314
aV\u53c2\u4e0e
p315
aV\u670b\u53cb
p316
aV\u4f20\u64ad
p317
aV\u79c1\u4fe1
p318
asa(dp319
g5
S'\xc3\xe6\xb6\xd4\xce\xa2\xd0\xc5\xc6\xf2\xd8\xa4\xa3\xac\xb9\xd8\xbc\xfc\xca\xc7\xd7\xd4\xbc\xba\xb2\xbb\xc4\xdc\xb5\xb1\xd5\xe6'
p320
sg7
S'http://www.cnr.cn/newscenter/comment/latest/20150928/t20150928_519998072.shtml'
p321
sg9
(lp322
V\u7ea2\u5305
p323
aV\u5fae\u4fe1
p324
aV\u53cb\u60c5
p325
aV\u5a31\u4e50
p326
aV\u670b\u53cb\u5708
p327
aV\u4e00\u79cd
p328
aV\u5c0f\u59d0
p329
aV\u670b\u53cb
p330
aV\u5728\u610f
p331
aV\u4e5e\u4e10
p332
asasg35
g36
((lp333
g316
ag312
atp334
Rp335
sa(dp336
g2
(lp337
(dp338
g5
S'\xce\xed\xf6\xb2\xb5\xb1\xc7\xb0\xa3\xac\xc9\xd9\xbf\xaa\xd2\xbb\xb4\xce\xb3\xb5\xbe\xcd\xd5\xe2\xc3\xb4\xc4\xd1\xc2\xf0'
p339
sg7
S'http://www.cnr.cn/newscenter/comment/latest/20151224/t20151224_520906407.shtml'
p340
sg9
(lp341
V\u5c11\u5f00
p342
aV\u9884\u8b66
p343
aV\u673a\u52a8\u8f66
p344
aV\u5355\u53cc
p345
aV\u7ea2\u8272
p346
aV22
p347
aV\u9650\u884c
p348
aV\u8fdd\u89c4
p349
aV\u7a7a\u6c14\u6c61\u67d3
p350
aV\u89c4\u5b9a
p351
asa(dp352
g5
S'\xb2\xbb\xb7\xc1\xb0\xd1\xce\xed\xf6\xb2\xba\xec\xc9\xab\xd4\xa4\xbe\xaf\xb5\xb1\xd2\xbb\xb4\xce\xbe\xaf\xb8\xe6'
p353
sg7
S'http://www.cnr.cn/newscenter/comment/latest/20151208/t20151208_520722014.shtml'
p354
sg9
(lp355
V\u9884\u8b66
p356
aV\u5e94\u6025
p357
aV\u6c61\u67d3
p358
aV\u7ea2\u8272
p359
aV\u63aa\u65bd
p360
aV\u542f\u52a8
p361
aV\u7a7a\u6c14\u6c61\u67d3
p362
aV\u7a7a\u6c14
p363
aV\u91c7\u53d6
p364
aV\u9650\u884c
p365
asasg35
g36
((lp366
g356
ag362
ag365
ag359
atp367
Rp368
sa(dp369
g2
(lp370
(dp371
g5
S'\xca\xd8\xd0\xc5\xa3\xac\xb2\xc5\xc4\xdc\xa1\xb0\xba\xe3\xb4\xf3\xa1\xb1'
p372
sg7
S'http://www.cnr.cn/newscenter/comment/latest/20151125/t20151125_520594405.shtml'
p373
sg9
(lp374
V\u6052\u5927
p375
aV\u8fdd\u7ea6
p376
aV\u8db3\u7403
p377
aV\u4eba\u5bff
p378
aV\u4e1c\u98ce
p379
aV\u5931\u4fe1
p380
aV\u8d5b\u70b9
p381
aV\u7403\u8ff7
p382
aV\u65e5\u4ea7
p383
aV\u5546\u4e1a
p384
asa(dp385
g5
S'\xd1\xc7\xb9\xda\xb1\xad\xbf\xb8\xb2\xbb\xb6\xaf\xba\xe3\xb4\xf3\xa1\xb0\xce\xa5\xd4\xbc\xc3\xc5\xa1\xb1'
p386
sg7
S'http://www.cnr.cn/newscenter/comment/latest/20151123/t20151123_520568439.shtml'
p387
sg9
(lp388
V\u6052\u5927
p389
aV\u7403\u8863
p390
aV\u5e7f\u544a
p391
aV\u65e5\u4ea7
p392
aV\u4e1c\u98ce
p393
aV\u8fdd\u7ea6
p394
aV\u8bda\u4fe1
p395
aV\u8fdd\u7ea6\u8d23\u4efb
p396
aV\u80f8\u524d
p397
aV\u5931\u4fe1
p398
asasg35
g36
((lp399
g398
ag393
ag392
ag394
ag389
atp400
Rp401
sa(dp402
g2
(lp403
(dp404
g5
S'\xb1\xa3\xd5\xcf\xb7\xbf\xbf\xd5\xd6\xc3\xa3\xac\xbb\xdd\xc3\xf1\xd5\xfe\xb2\xdf\xd7\xdf\xd0\xce\xb1\xe4\xce\xb6'
p405
sg7
S'http://www.cnr.cn/newscenter/comment/latest/20151225/t20151225_520921558.shtml'
p406
sg9
(lp407
V\u4fdd\u969c
p408
aV\u4e2d\u4f4e\u6536\u5165
p409
aV\u653f\u5e9c\u90e8\u95e8
p410
aV\u7fa4\u4f53
p411
aV\u5efa\u8bbe
p412
aV\u95f2\u7f6e
p413
aV\u5efa\u6210
p414
aV\u4e07\u5957
p415
aV\u79df\u623f
p416
aV\u9009\u5740
p417
asa(dp418
g5
S'\xb4\xd3\xb1\xa3\xd5\xcf\xb7\xbf\xb1\xbb\xcf\xd0\xd6\xc3\xbf\xb4\xc8\xa8\xc1\xa6\xb5\xc4\xc0\xe4\xc4\xae'
p419
sg7
S'http://www.cnr.cn/newscenter/comment/latest/20151123/t20151123_520569021.shtml'
p420
sg9
(lp421
V\u4fdd\u969c
p422
aV\u8d35\u9633\u5e02
p423
aV\u90e8\u95e8
p424
aV\u6c11\u4f17
p425
aV\u5c40\u957f
p426
aV\u76f8\u5173
p427
aV\u4e07\u5957
p428
aV\u6743\u529b
p429
aV\u7fa4\u4f17
p430
aV\u4f4f\u5efa
p431
asa(dp432
g5
S'\xb0\xb2\xd7\xd3\xd6\xdd\xa3\xba\xa1\xb0\xce\xd2\xb2\xbb\xca\xc7\xbe\xd6\xb3\xa4\xa1\xb1\xb2\xbb\xd6\xbb\xca\xc7\xb8\xf6\xa1\xb0\xba\xda\xc9\xab\xd3\xc4\xc4\xac\xa1\xb1'
p433
sg7
S'http://www.cnr.cn/newscenter/comment/latest/20151123/t20151123_520568998.shtml'
p434
sg9
(lp435
V\u5c40\u957f
p436
aV\u5efa\u5c40
p437
aV\u4fdd\u969c
p438
aV\u8d35\u9633\u5e02
p439
aV\u4e07\u5957
p440
aV\u4f4f\u6237
p441
aV\u4e0d\u662f
p442
aV\u95f2\u7f6e
p443
aV85.43
p444
aV\u90e8\u95e8
p445
asa(dp446
g5
S'3\xcd\xf2\xcc\xd7\xb1\xa3\xd5\xcf\xb7\xbf\xcf\xd0\xd6\xc3\xa3\xac\xcb\xad\xc0\xb4\xb8\xf8\xb8\xf6\xcb\xb5\xb7\xa8\xa3\xbf'
p447
sg7
S'http://www.cnr.cn/newscenter/comment/latest/20151122/t20151122_520563708.shtml'
p448
sg9
(lp449
V\u4fdd\u969c
p450
aV\u8d35\u9633\u5e02
p451
aV11
p452
aV\u95ee\u9898
p453
aV\u95f2\u7f6e
p454
aV\u8d28\u91cf
p455
aV\u4e07\u5957
p456
aV\u5efa\u5c40
p457
aV\u5f53\u5730
p458
aV\u8d35\u9633
p459
asasg35
g36
((lp460
g428
ag422
atp461
Rp462
sa(dp463
g2
(lp464
(dp465
g5
S'\xb8\xbb\xba\xc0\xd4\xe2\xd0\xb2\xc6\xc8\xc9\xb1\xc8\xcb\xb8\xc3\xb5\xb1\xba\xce\xd7\xef\xa3\xbf'
p466
sg7
S'http://www.cnr.cn/newscenter/comment/latest/20151119/t20151119_520544478.shtml'
p467
sg9
(lp468
V\u80c1\u8feb
p469
aV\u6740\u4eba
p470
aV\u67d0\u67d0
p471
aV\u80c1\u4ece\u72af
p472
aV\u72af\u7f6a
p473
aV\u6740\u4eba\u8005
p474
aV\u5b9c\u5bbe
p475
aV\u6cd5\u5f8b\u8d23\u4efb
p476
aV\u7ed1\u67b6\u52d2\u7d22
p477
aV\u5acc\u7591\u4eba
p478
asasg35
g36
((lp479
V\u67d0\u67d0
p480
aV\u72af\u7f6a
p481
aV\u5acc\u7591\u4eba
p482
aV\u6740\u4eba\u8005
p483
aV\u80c1\u8feb
p484
aV\u80c1\u4ece\u72af
p485
aV\u6cd5\u5f8b\u8d23\u4efb
p486
aV\u7ed1\u67b6\u52d2\u7d22
p487
aV\u6740\u4eba
p488
aV\u5b9c\u5bbe
p489
atp490
Rp491
sa(dp492
g2
(lp493
(dp494
g5
S'\xb1\xf0\xd6\xb8\xcd\xfb\xca\xc2\xba\xf3\xc9\xf3\xbc\xc6\xbf\xb4\xb5\xc3\xd7\xa1\xb2\xca\xc6\xb1\xd7\xca\xbd\xf0'
p495
sg7
S'http://www.cnr.cn/newscenter/comment/latest/20151228/t20151228_520948557.shtml'
p496
sg9
(lp497
V\u5f69\u7968
p498
aV\u8d44\u91d1
p499
aV\u5ba1\u8ba1
p500
aV\u6574\u6539
p501
aV\u8fdd\u89c4
p502
aV\u578b\u5f69\u7968
p503
aV\u95ee\u9898
p504
aV\u697c\u5802\u9986\u6240
p505
aV\u95ee\u8d23
p506
aV\u5ba1\u8ba1\u7f72
p507
asa(dp508
g5
S'\xd6\xd0\xbc\xcd\xce\xaf\xb8\xc3\xb3\xf6\xca\xd6\xd6\xce\xc0\xed\xb2\xca\xc6\xb1\xd0\xd0\xd2\xb5\xc2\xd2\xcf\xf3\xc1\xcb'
p509
sg7
S'http://www.cnr.cn/newscenter/comment/latest/20151118/t20151118_520533172.shtml'
p510
sg9
(lp511
V\u5f69\u7968
p512
aV\u6bd4\u4f8b
p513
aV\u516c\u76ca\u91d1
p514
aV\u4e2d\u592e\u7eaa\u59d4
p515
aV\u5ba1\u8ba1
p516
aV\u8d44\u91d1
p517
aV\u53cd\u8150
p518
aV\u53d1\u884c
p519
aV\u95ee\u9898
p520
aV\u5f69\u5e02
p521
asa(dp522
g5
S'\xc8\xc3\xb2\xca\xc6\xb1\xd7\xca\xbd\xf0\xd7\xdf\xbd\xf8\xd1\xf4\xb9\xe2\xb5\xd8\xb4\xf8'
p523
sg7
S'http://www.cnr.cn/newscenter/comment/latest/20151117/t20151117_520522173.shtml'
p524
sg9
(lp525
V\u5f69\u7968
p526
aV\u8d44\u91d1
p527
aV\u53d1\u884c
p528
aV\u516c\u76ca\u91d1
p529
aV\u6bd4\u4f8b
p530
aV\u8d22\u653f\u90e8
p531
aV\u5f69\u6c11
p532
aV20
p533
aV\u7ba1\u7406
p534
aV\u4f7f\u7528
p535
asasg35
g36
((lp536
g512
ag517
atp537
Rp538
sa(dp539
g2
(lp540
(dp541
g5
S'\xd6\xd0\xc7\xe0\xb1\xa8\xa3\xba\xb4\xf3\xd1\xa7\xc9\xfa\xcf\xfb\xb7\xd1\xd0\xc5\xb4\xfb\xd2\xaa\xc1\xbf\xc1\xa6\xb6\xf8\xd0\xd0'
p542
sg7
S'http://www.cnr.cn/newscenter/comment/latest/20151216/t20151216_520816115.shtml'
p543
sg9
(lp544
V\u5927\u5b66\u751f
p545
aV\u6d88\u8d39\u4fe1\u8d37
p546
aV\u6d88\u8d39
p547
aV\u7535\u5546
p548
aV\u5e73\u53f0
p549
aV\u80fd\u529b
p550
aV\u7fa4\u4f53
p551
aV\u91d1\u878d\u673a\u6784
p552
aV\u786e\u4fdd
p553
aV\u8fc7\u5ea6
p554
asa(dp555
g5
S'\xcd\xf8\xb4\xfb\xcf\xfb\xb7\xd1\xc6\xbd\xcc\xa8\xb2\xbb\xb8\xc3\xb6\xd4\xb4\xf3\xd1\xa7\xc9\xfa\xa1\xb0\xc8\xf6\xcd\xf8\xa1\xb1'
p556
sg7
S'http://www.cnr.cn/newscenter/comment/latest/20151112/t20151112_520482732.shtml'
p557
sg9
(lp558
V\u5927\u5b66\u751f
p559
aV\u7f51\u8d2d
p560
aV\u6d88\u8d39
p561
aV\u6d88\u8d39\u4fe1\u8d37
p562
aV\u8840\u62fc
p563
aV\u5e73\u53f0
p564
aV11
p565
aV\u80fd\u529b
p566
aV\u8d37\u6b3e\u4eba
p567
aV\u8fd8\u8d37
p568
asa(dp569
g5
S'\xa1\xb0\xcb\xab11\xa1\xb1\xd7\xee\xca\xe4\xb2\xbb\xc6\xf0\xb5\xc4\xbe\xcd\xca\xc7\xb3\xcf\xd0\xc5'
p570
sg7
S'http://www.cnr.cn/newscenter/comment/latest/20151109/t20151109_520442683.shtml'
p571
sg9
(lp572
V\u7535\u5546
p573
aV11
p574
aV\u8bda\u4fe1
p575
aV\u8f93\u4e0d\u8d77
p576
aV\u5e73\u53f0
p577
aV\u6570\u636e
p578
aV\u9500\u552e
p579
aV\u5546\u5bb6
p580
aV\u6d88\u8d39
p581
aV\u4eac\u4e1c
p582
asasg35
g36
((lp583
g564
ag561
atp584
Rp585
sa(dp586
g2
(lp587
(dp588
g5
S'\xd6\xd0\xb9\xfa\xb8\xbb\xba\xc0\xd5\xe6\xb5\xc4\xd2\xbb\xc3\xab\xb2\xbb\xb0\xce\xc2\xf0'
p589
sg7
S'http://www.cnr.cn/newscenter/comment/latest/20151209/t20151209_520738359.shtml'
p590
sg9
(lp591
V\u6350\u8d60
p592
aV\u5bcc\u8c6a
p593
aV\u6148\u5584
p594
aV\u4f01\u4e1a\u5bb6
p595
aV\u66f9\u5fb7\u65fa
p596
aV\u624e\u514b
p597
aV\u793e\u4f1a
p598
aV\u6350\u51fa
p599
aV\u907f\u7a0e
p600
aV\u4f2f\u683c
p601
asa(dp602
g5
S'\xcd\xc1\xba\xc0\xd4\xfa\xbf\xcb\xb2\xae\xb8\xf1\xc3\xc7\xc9\xc6\xbe\xe8\xb5\xc4\xd5\xe6\xd5\xfd\xb6\xaf\xbb\xfa'
p603
sg7
S'http://www.cnr.cn/newscenter/comment/latest/20151206/t20151206_520701843.shtml'
p604
sg9
(lp605
V\u6148\u5584
p606
aV\u6350\u8d60
p607
aV\u76d6\u8328
p608
aV\u4f2f\u683c
p609
aV\u624e\u514b
p610
aV\u5bcc\u4eba
p611
aV\u793e\u4f1a
p612
aV\u6148\u5584\u4e8b\u4e1a
p613
aV\u5df4\u83f2\u7279
p614
aV\u91cd\u8981
p615
asa(dp616
g5
S'\xbe\xc9\xd2\xc2\xb7\xfe\xb5\xb1\xb0\xae\xd0\xc4\xbe\xe8\xd5\xdb\xc9\xe4\xb4\xc8\xc9\xc6\xce\xc4\xbb\xaf\xb5\xc4\xb2\xd4\xb0\xd7\xd3\xeb\xc2\xe4\xba\xf3'
p617
sg7
S'http://www.cnr.cn/newscenter/comment/latest/20151125/t20151125_520594432.shtml'
p618
sg9
(lp619
V\u7231\u5fc3
p620
aV\u6350\u8d60
p621
aV\u8863\u7269
p622
aV\u65e7\u8863\u670d
p623
aV\u77f3\u9547
p624
aV\u4e2d\u5fc3\u6821
p625
aV\u6148\u5584
p626
aV\u8fc7\u5269
p627
aV\u591a\u4f59
p628
aV\u8868\u660e
p629
asa(dp630
g5
S'\xb6\xd4\xd1\xcc\xb2\xdd\xb4\xc8\xc9\xc6\xbe\xe8\xd4\xf9\xd2\xaa\xa1\xb0\xd2\xbb\xb0\xf4\xd7\xd3\xb4\xf2\xcb\xc0\xa1\xb1'
p631
sg7
S'http://www.cnr.cn/newscenter/comment/latest/20151120/t20151120_520554906.shtml'
p632
sg9
(lp633
V\u70df\u8349
p634
aV\u6148\u5584
p635
aV\u63a7\u70df
p636
aV\u6350\u8d60
p637
aV\u5e7f\u544a
p638
aV\u4f01\u4e1a
p639
aV\u5168\u9762\u7981\u6b62
p640
aV\u51a0\u540d
p641
aV\u7981\u6b62
p642
aV\u5236\u54c1
p643
asa(dp644
g5
S'\xb4\xc8\xc9\xc6\xcb\xb0\xd6\xc6\xb2\xbb\xc4\xdc\xb5\xb1\xb4\xc8\xc9\xc6\xb7\xa2\xd5\xb9\xb0\xed\xbd\xc5\xca\xaf'
p645
sg7
S'http://www.cnr.cn/newscenter/comment/latest/20151118/t20151118_520533190.shtml'
p646
sg9
(lp647
V\u6350\u8d60
p648
aV\u7a0e\u6536
p649
aV\u4f18\u60e0
p650
aV\u6148\u5584
p651
aV\u7f34\u7eb3
p652
aV\u4eab\u53d7
p653
aV\u6148\u5584\u4e8b\u4e1a
p654
aV\u7a0e\u6536\u6cd5\u5f8b
p655
aV\u7a0e\u5236
p656
aV\u6350\u8d60\u4eba
p657
asa(dp658
g5
S'\xb4\xc8\xc9\xc6\xb7\xa8\xb8\xc3\xb2\xbb\xb8\xc3\xbd\xfb\xd6\xb9\xd1\xcc\xb2\xdd\xc6\xf3\xd2\xb5\xbe\xe8\xd4\xf9'
p659
sg7
S'http://www.cnr.cn/newscenter/comment/latest/20151109/t20151109_520442628.shtml'
p660
sg9
(lp661
V\u6148\u5584
p662
aV\u70df\u8349
p663
aV\u6350\u8d60
p664
aV\u7acb\u6cd5
p665
aV\u4f01\u4e1a
p666
aV\u7981\u6b62
p667
aV\u5ba3\u4f20
p668
aV\u63a7\u70df
p669
aV\u76ee\u7684
p670
aV\u6743\u5229
p671
asa(dp672
g5
S'\xbf\xd8\xd1\xcc\xce\xaa\xba\xce\xb2\xbb\xc8\xe7\xd6\xce\xc0\xed\xce\xed\xf6\xb2\xd3\xd0\xd0\xa7'
p673
sg7
S'http://www.cnr.cn/newscenter/comment/latest/20151104/t20151104_520386897.shtml'
p674
sg9
(lp675
V\u63a7\u70df
p676
aV\u516c\u5171\u573a\u6240
p677
aV\u70df\u8349
p678
aVPM2
p679
aV\u4e8c\u624b\u70df
p680
aV\u5438\u70df
p681
aV\u5fae\u514b
p682
aV\u70df\u96fe
p683
aV\u7b14\u8005
p684
aV\u5438\u70df\u8005
p685
asasg35
g36
((lp686
g612
ag610
ag607
ag606
ag609
atp687
Rp688
sa(dp689
g2
(lp690
(dp691
g5
S'IPO\xcf\xb8\xd4\xf2\xd0\xc2\xb9\xe6\xc4\xdc\xb8\xf8\xb9\xc9\xca\xd0\xb4\xf8\xc0\xb4\xca\xb2\xc3\xb4'
p692
sg7
S'http://www.cnr.cn/newscenter/comment/latest/20151118/t20151118_520533242.shtml'
p693
sg9
(lp694
VIPO
p695
aV\u6253\u65b0
p696
aV\u65b0\u80a1
p697
aV\u65b0\u89c4
p698
aV\u53d1\u884c
p699
aV\u5305\u9500
p700
aV\u5236\u5ea6
p701
aV\u5e02\u573a
p702
aV\u91cd\u542f
p703
aV\u53d1\u5ba1
p704
asa(dp705
g5
S'\xd6\xa4\xbc\xe0\xbb\xe1\xce\xaa\xba\xce\xb4\xcb\xca\xb1\xd6\xd8\xc6\xf4IPO'
p706
sg7
S'http://www.cnr.cn/newscenter/comment/latest/20151107/t20151107_520427919.shtml'
p707
sg9
(lp708
V\u65b0\u80a1
p709
aV\u91cd\u542f
p710
aV\u53d1\u884c
p711
aVIPO
p712
aV\u8bc1\u76d1\u4f1a
p713
aVA\u80a1
p714
aV\u5e02\u573a
p715
aV\u5341\u4e09
p716
aV\u6682\u505c
p717
aV\u8d44\u672c
p718
asasg35
g36
((lp719
g710
ag709
ag712
ag715
ag711
atp720
Rp721
sa(dp722
g2
(lp723
(dp724
g5
S'\xbf\xb4\xd0\xd0\xd5\xfe\xc9\xf3\xc5\xd0\xd6\xae\xe1\xc8\xc6\xf0'
p725
sg7
S'http://www.cnr.cn/newscenter/comment/latest/20151105/t20151105_520407169.shtml'
p726
sg9
(lp727
V\u5ba1\u5224
p728
aV\u884c\u653f
p729
aV\u5de5\u4f5c
p730
aV\u62a5\u544a
p731
aV\u884c\u653f\u8bc9\u8bbc
p732
aV\u53f8\u6cd5
p733
aV\u5d1b\u8d77
p734
aV\u6c11\u4f17
p735
aV\u6cd5\u9662\u7cfb\u7edf
p736
aV\u673a\u5173
p737
asa(dp738
g5
S'\xa1\xb0\xb1\xa8\xcf\xb2\xa1\xb1\xd2\xe0\xa1\xb0\xb1\xa8\xd3\xc7\xa1\xb1\xa3\xba\xd7\xee\xb8\xdf\xb7\xa8\xd0\xd0\xd5\xfe\xc9\xf3\xc5\xd0\xb9\xa4\xd7\xf7\xb1\xa8\xb8\xe6\xbb\xf1\xb9\xab\xd4\xca'
p739
sg7
S'http://www.cnr.cn/newscenter/comment/latest/20151105/t20151105_520407145.shtml'
p740
sg9
(lp741
V\u5ba1\u5224
p742
aV\u884c\u653f
p743
aV\u884c\u653f\u6848\u4ef6
p744
aV\u7fa4\u4f17
p745
aV\u53f8\u6cd5
p746
aV\u62a5\u544a
p747
aV\u6c11\u544a\u5b98
p748
aV\u8bc9\u6743
p749
aV\u5ba1\u7406
p750
aV\u4fdd\u969c
p751
asasg35
g36
((lp752
g743
ag746
ag742
ag747
atp753
Rp754
sa(dp755
g2
(lp756
(dp757
g5
S'\xd6\xd0\xb9\xfa\xd0\xe8\xd2\xaa\xd4\xf5\xd1\xf9\xb5\xc4\xa1\xb0\xca\xc0\xbd\xe7\xd2\xbb\xc1\xf7\xb4\xf3\xd1\xa7\xa1\xb1'
p758
sg7
S'http://www.cnr.cn/newscenter/comment/latest/20151109/t20151109_520442775.shtml'
p759
sg9
(lp760
V\u4e00\u6d41\u5927\u5b66
p761
aV\u5927\u5b66
p762
aV\u4e16\u754c
p763
aV\u4e00\u6d41
p764
aV\u5b66\u79d1\u5efa\u8bbe
p765
aV\u5317\u5927
p766
aV\u95ee\u9898
p767
aV\u7cbe\u795e
p768
aV\u5750\u6807
p769
aV\u5efa\u8bbe
p770
asa(dp771
g5
S'\xa1\xb0\xcb\xab\xd2\xbb\xc1\xf7\xa1\xb1\xc4\xdc\xb7\xf1\xd6\xd5\xbd\xe1\xa1\xb0\xc7\xae\xd1\xa7\xc9\xad\xd6\xae\xce\xca\xa1\xb1'
p772
sg7
S'http://www.cnr.cn/newscenter/comment/latest/20151106/t20151106_520415381.shtml'
p773
sg9
(lp774
V\u4e00\u6d41
p775
aV\u4eba\u624d
p776
aV\u4e00\u6d41\u5927\u5b66
p777
aV\u9ad8\u6821
p778
aV\u4e16\u754c
p779
aV\u5b66\u672f\u7814\u7a76
p780
aV\u79d1\u7814
p781
aV\u9ad8\u7b49\u6559\u80b2
p782
aV\u5b66\u79d1
p783
aV\u4f18\u79c0\u4eba\u624d
p784
asa(dp785
g5
S'\xb4\xf3\xd1\xa7\xb2\xbb\xd3\xa6\xb0\xf8\xd7\xc5\xc5\xc5\xd0\xd0\xb0\xf1\xb9\xfd\xc8\xd5\xd7\xd3'
p786
sg7
S'http://www.cnr.cn/newscenter/comment/latest/20151106/t20151106_520414750.shtml'
p787
sg9
(lp788
V\u4e00\u6d41
p789
aV\u9ad8\u6821
p790
aV\u4e00\u6d41\u5927\u5b66
p791
aV\u793e\u4f1a\u79d1\u5b66
p792
aV\u7406\u5de5\u79d1
p793
aV\u8bc4\u4ef7
p794
aV\u5b66\u672f
p795
aV\u4eba\u6587
p796
aV\u4e16\u754c
p797
aV\u603b\u4f53\u65b9\u6848
p798
asasg35
g36
((lp799
g775
ag779
ag777
atp800
Rp801
sa(dp802
g2
(lp803
(dp804
g5
S'\xd5\xd0\xc4\xbc\xa1\xb0\xb4\xfa\xc0\xed\xc2\xe8\xc2\xe8\xa1\xb1\xb2\xa2\xb7\xc7\xb2\xbb\xbf\xc9\xca\xb5\xd0\xd0'
p805
sg7
S'http://www.cnr.cn/newscenter/comment/latest/20151101/t20151101_520350363.shtml'
p806
sg9
(lp807
V\u7559\u5b88
p808
aV\u5b69\u5b50
p809
aV\u513f\u7ae5
p810
aV\u4eb2\u60c5
p811
aV\u793e\u4f1a
p812
aV\u966a\u4f34
p813
aV\u5988\u5988
p814
aV\u7236\u6bcd
p815
aV\u4e4b\u6b87
p816
aV\u65b9\u6848
p817
asa(dp818
g5
S'\xba\xa2\xd7\xd3\xb5\xc4\xca\xab\xca\xc7\xb4\xbf\xd5\xe6\xb5\xc4'
p819
sg7
S'http://www.cnr.cn/newscenter/comment/latest/20151031/t20151031_520344198.shtml'
p820
sg9
(lp821
V\u94c1\u5934
p822
aV\u5b69\u5b50
p823
aV\u5988\u5988
p824
aV\u60f3\u6cd5
p825
aV\u7236\u6bcd
p826
aV\u4e16\u754c
p827
aV\u7231\u60c5
p828
aV\u53ea\u662f
p829
aV\u5b69\u7ae5
p830
aV\u7eaf\u771f
p831
asa(dp832
g5
S'\xb9\xd8\xd7\xa2\xc1\xf4\xca\xd8\xb6\xf9\xcd\xaf\xd2\xaa\xb6\xe0\xd1\xd0\xbe\xbf\xa1\xb0\xce\xca\xcc\xe2\xa1\xb1'
p833
sg7
S'http://www.cnr.cn/newscenter/comment/latest/20151031/t20151031_520344077.shtml'
p834
sg9
(lp835
V\u7559\u5b88
p836
aV\u513f\u7ae5
p837
aV\u7ae5\u4f34
p838
aV\u95ee\u9898
p839
aV\u5988\u5988
p840
aV\u6cbb\u672c
p841
aV\u7236\u6bcd
p842
aV\u610f\u8bc6
p843
aV\u6211\u4eec
p844
aV\u4e00\u4e9b
p845
asa(dp846
g5
S'\xc4\xc3\xca\xb2\xc3\xb4\xd5\xfc\xbe\xc8\xdf\xb1\xca\xa6\xb0\xb8\xba\xf3\xb5\xc4\xc1\xf4\xca\xd8\xb6\xf9\xcd\xaf'
p847
sg7
S'http://www.cnr.cn/newscenter/comment/latest/20151026/t20151026_520273309.shtml'
p848
sg9
(lp849
V\u7559\u5b88
p850
aV\u513f\u7ae5
p851
aV\u7f51\u5427
p852
aV\u5c11\u5e74
p853
aV\u7f51\u763e
p854
aV\u672a\u6210\u5e74\u4eba
p855
aV\u5173\u7231
p856
aV\u72af\u7f6a\u7387
p857
aV\u95ee\u9898
p858
aV\u8206\u8bba
p859
asasg35
g36
((lp860
g823
ag824
ag826
atp861
Rp862
sa(dp863
g2
(lp864
(dp865
g5
S'\xca\xa7\xb6\xc0\xbc\xd2\xcd\xa5\xb7\xf6\xd6\xfa\xcc\xf5\xbf\xee\xb8\xc3\xb2\xbb\xb8\xc3\xc9\xbe'
p866
sg7
S'http://www.cnr.cn/newscenter/comment/latest/20151225/t20151225_520921400.shtml'
p867
sg9
(lp868
V\u751f\u80b2
p869
aV\u5bb6\u5ead
p870
aV\u6276\u52a9
p871
aV\u8ba1\u5212\u751f\u80b2
p872
aV\u72ec\u751f\u5b50\u5973
p873
aV\u56f0\u96be
p874
aV\u592b\u59bb
p875
aV\u5b69\u5b50
p876
aV\u7279\u6b8a
p877
aV\u8349\u6848
p878
asa(dp879
g5
S'\xd1\xd3\xb3\xa4\xc9\xfa\xd3\xfd\xbc\xd9\xc4\xdc\xb7\xf1\xd3\xd0\xb8\xf6\xa1\xb0\xb6\xb5\xb5\xd7\xb9\xe6\xb6\xa8\xa1\xb1'
p880
sg7
S'http://www.cnr.cn/newscenter/comment/latest/20151222/t20151222_520877244.shtml'
p881
sg9
(lp882
V\u751f\u80b2
p883
aV\u5ef6\u957f
p884
aV\u4e24\u5b69
p885
aV\u4ea7\u5047
p886
aV\u653f\u7b56
p887
aV\u7528\u4eba\u5355\u4f4d
p888
aV\u665a\u5a5a\u665a\u80b2
p889
aV\u8349\u6848
p890
aV21
p891
aV12
p892
asa(dp893
g5
S'\xbb\xa7\xbf\xda\xb5\xc7\xbc\xc7\xd3\xeb\xbc\xc6\xc9\xfa\xcd\xd1\xb9\xb3\xcc\xf5\xbc\xfe\xd2\xd1\xb3\xc9\xca\xec'
p894
sg7
S'http://www.cnr.cn/newscenter/comment/latest/20151211/t20151211_520761444.shtml'
p895
sg9
(lp896
V\u6237\u53e3
p897
aV\u767b\u8bb0
p898
aV\u629a\u517b\u8d39
p899
aV\u9ed1\u6237
p900
aV\u751f\u80b2
p901
aV\u571f\u653f\u7b56
p902
aV\u653f\u7b56
p903
aV\u4eba\u5458
p904
aV\u8ba1\u5212\u751f\u80b2
p905
aV\u793e\u4f1a
p906
asa(dp907
g5
S'\xd4\xb8\xd2\xe2\xc9\xfa\xb6\xfe\xba\xa2\xb5\xc4\xc8\xcb\xc9\xd9\xa3\xac\xce\xc0\xbc\xc6\xb2\xbf\xc3\xc5\xd4\xf5\xc3\xb4\xb0\xec'
p908
sg7
S'http://www.cnr.cn/newscenter/comment/latest/20151209/t20151209_520738219.shtml'
p909
sg9
(lp910
V\u751f\u80b2
p911
aV\u4e8c\u5b69
p912
aV\u751f\u80b2\u7387
p913
aV\u89c2\u5ff5
p914
aV\u4e00\u80ce\u5316
p915
aV\u72ec\u751f\u5b50\u5973
p916
aV\u4eba\u53e3
p917
aV\u629a\u517b
p918
aV\u538b\u529b
p919
aV\u4ea7\u5047
p920
asa(dp921
g5
S'\xc4\xaa\xd2\xaa\xce\xe4\xb6\xcf\xc4\xa8\xc9\xb1\xc7\xa9\xd4\xbc\xd2\xbd\xc9\xfa\xbf\xc9\xc4\xdc\xd0\xd4'
p922
sg7
S'http://www.cnr.cn/newscenter/comment/latest/20151128/t20151128_520627045.shtml'
p923
sg9
(lp924
V\u7b7e\u7ea6
p925
aV\u533b\u751f
p926
aV\u533b\u9662
p927
aV\u5bb6\u5ead
p928
aV\u533b\u60a3
p929
aV\u533b\u7597
p930
aV\u533b\u7597\u673a\u6784
p931
aV\u60a3\u8005
p932
aV\u6bcf\u4e2a
p933
aV\u653f\u7b56
p934
asa(dp935
g5
S'\xc9\xfa\xb6\xfe\xba\xa2\xb8\xc3\xb2\xbb\xb8\xc3\xcf\xed\xca\xdc\xcd\xed\xd3\xfd\xbc\xd9\xa3\xbf'
p936
sg7
S'http://www.cnr.cn/newscenter/comment/latest/20151118/t20151118_520533247.shtml'
p937
sg9
(lp938
V\u4e8c\u5b69
p939
aV\u751f\u80b2
p940
aV\u665a\u80b2
p941
aV\u4ea7\u5047
p942
aV\u4eab\u53d7
p943
aV\u5987\u5973
p944
aV\u5341\u56db\u5468\u5c81
p945
aV\u80b2\u9f84\u592b\u5987
p946
aV\u751f\u4e8c\u80ce
p947
aV\u5956\u52b1
p948
asa(dp949
g5
S'\xb7\xc5\xbf\xaa\xb6\xfe\xba\xa2\xb5\xc4\xb6\xe0\xd6\xd8\xc0\xfb\xba\xc3\xc8\xe7\xba\xce\xca\xb5\xcf\xd6'
p950
sg7
S'http://www.cnr.cn/newscenter/comment/latest/20151030/t20151030_520333115.shtml'
p951
sg9
(lp952
V\u4e8c\u5b69
p953
aV\u653f\u7b56
p954
aV\u653e\u5f00
p955
aV\u751f\u80b2
p956
aV\u5bb6\u5ead
p957
aV\u5168\u9762
p958
aV\u4e07\u5bf9
p959
aV\u5355\u72ec
p960
aV\u4eba\u53e3
p961
aV\u5b69\u5b50
p962
asa(dp963
g5
S'\xc8\xab\xc3\xe6\xb7\xc5\xbf\xaa\xb6\xfe\xcc\xa5\xa3\xac\xc4\xe3\xd7\xbc\xb1\xb8\xba\xc3\xc1\xcb\xc2\xf0'
p964
sg7
S'http://www.cnr.cn/newscenter/comment/latest/20151030/t20151030_520333048.shtml'
p965
sg9
(lp966
V\u4e8c\u80ce
p967
aV\u653f\u7b56
p968
aV\u751f\u80b2
p969
aV\u653e\u5f00
p970
aV\u5168\u9762
p971
aV\u4e8c\u5b69
p972
aV\u5bb6\u5ead
p973
aV\u8c03\u6574
p974
aV\u4e94\u4e2d\u5168\u4f1a
p975
aV\u6210\u672c
p976
asasg35
g36
((lp977
g890
ag883
atp978
Rp979
sa(dp980
g2
(lp981
(dp982
g5
S'\xd3\xa6\xbd\xec\xc9\xfa\xb2\xbb\xb1\xd8\xd1\xa7\xb6\xf8\xd3\xc5\xd4\xf2\xa1\xb0\xb9\xfa\xbf\xbc\xa1\xb1'
p983
sg7
S'http://www.cnr.cn/newscenter/comment/latest/20151201/t20151201_520650220.shtml'
p984
sg9
(lp985
V\u56fd\u8003
p986
aV\u5e94\u5c4a\u751f
p987
aV\u516c\u52a1\u5458
p988
aV\u62a5\u8003
p989
aV\u62db\u5f55
p990
aV\u9009\u62e9
p991
aV\u964d\u6e29
p992
aV\u804c\u4f4d
p993
aV\u653f\u5e9c\u90e8\u95e8
p994
aV\u8fd1\u5e74\u6765
p995
asa(dp996
g5
S'\xd0\xec\xc8\xbd\xa3\xba\xb9\xab\xce\xf1\xd4\xb1\xa1\xb0\xcc\xf8\xb2\xdb\xc8\xc8\xa1\xb1\xbb\xf2\xbf\xaa\xc6\xf4\xca\xc7\xba\xcf\xc0\xed\xcf\xd6\xcf\xf3'
p997
sg7
S'http://www.cnr.cn/newscenter/comment/latest/20151123/t20151123_520568953.shtml'
p998
sg9
(lp999
V\u516c\u52a1\u5458
p1000
aV\u8df3\u69fd
p1001
aV\u62a5\u8003
p1002
aV\u62db\u8058
p1003
aV\u79d1\u5b66
p1004
aV\u94c1\u996d\u7897
p1005
aV\u73b0\u8c61
p1006
aV\u62db\u8003
p1007
aV\u961f\u4f0d
p1008
aV\u4eba\u624d
p1009
asa(dp1010
g5
S'\xa1\xb0\xd7\xee\xba\xc3\xb9\xfa\xbf\xbc\xc4\xea\xa1\xb1\xc4\xdc\xb7\xf1\xd5\xfc\xbe\xc8\xa1\xb0\xbe\xcd\xd2\xb5\xbc\xc0\xa1\xb1\xa3\xbf'
p1011
sg7
S'http://www.cnr.cn/newscenter/comment/latest/20151026/t20151026_520273464.shtml'
p1012
sg9
(lp1013
V\u56fd\u8003
p1014
aV\u5728\u804c
p1015
aV\u6c42\u804c\u8005
p1016
aV\u516c\u52a1\u5458
p1017
aV\u5927\u5b66\u751f
p1018
aV\u62a5\u8003
p1019
aV\u5c31\u4e1a
p1020
aV\u4eba\u6570
p1021
aV\u5e94\u5c4a\u751f
p1022
aV\u6bd5\u4e1a
p1023
asa(dp1024
g5
S'\xb9\xfa\xbf\xbc\xb1\xa8\xc3\xfb\xc6\xbe\xc9\xb6\xa1\xb0\xc8\xc3\xd1\xd0\xbe\xbf\xc9\xfa\xd7\xdf\xbf\xaa\xa1\xb1\xa3\xbf'
p1025
sg7
S'http://www.cnr.cn/newscenter/comment/latest/20151024/t20151024_520260699.shtml'
p1026
sg9
(lp1027
V\u56fd\u8003
p1028
aV\u4e1c\u839e
p1029
aV\u4ec5\u9650
p1030
aV\u7814\u7a76\u751f
p1031
aV\u672c\u79d1
p1032
aV\u5c97\u4f4d
p1033
aV\u6d6a\u8d39
p1034
aV\u4e3b\u4efb\u79d1\u5458
p1035
aV\u767e\u5206\u767e
p1036
aV\u516c\u52a1\u5458
p1037
asa(dp1038
g5
S'\xb9\xfa\xbf\xbc\xc0\xe4\xc8\xc8\xb2\xbb\xbe\xf9\xb5\xc4\xd5\xfd\xb3\xa3\xd3\xeb\xb2\xbb\xd5\xfd\xb3\xa3'
p1039
sg7
S'http://www.cnr.cn/newscenter/comment/latest/20151021/t20151021_520221793.shtml'
p1040
sg9
(lp1041
V\u5c97\u4f4d
p1042
aV\u51b7\u70ed
p1043
aV\u8003\u8bd5
p1044
aV\u95e8\u69db
p1045
aV\u4e0d\u5747
p1046
aV\u516c\u52a1\u5458
p1047
aV\u5982\u679c
p1048
aV\u94b1\u666f
p1049
aV\u56fd\u8003
p1050
aV\u9ad8\u5b66\u5386
p1051
asasg35
g36
((lp1052
g1000
ag1002
atp1053
Rp1054
sa(dp1055
g2
(lp1056
(dp1057
g5
S'\xbd\xcc\xca\xda\xd3\xeb\xc2\xf4\xb2\xe8\xd2\xb6\xb5\xb0\xb5\xc4\xc0\xcf\xcc\xab\xcc\xab'
p1058
sg7
S'http://www.cnr.cn/newscenter/comment/latest/20151220/t20151220_520855715.shtml'
p1059
sg9
(lp1060
V\u6536\u5165
p1061
aV\u4e13\u4e1a\u4eba\u58eb
p1062
aV\u77e5\u8bc6\u5206\u5b50
p1063
aV\u6559\u6388
p1064
aV\u8336\u53f6\u86cb
p1065
aV\u4ed6\u4eec
p1066
aV\u5230\u5e95
p1067
aV90
p1068
aV80
p1069
aV\u5e94\u8be5
p1070
asa(dp1071
g5
S'\xb7\xf6\xc0\xcf\xc8\xcb\xcf\xd5\xa3\xac\xc2\xf2\xb2\xbb\xc2\xf2\xb6\xbc\xde\xcf\xde\xce'
p1072
sg7
S'http://www.cnr.cn/newscenter/comment/latest/20151104/t20151104_520387233.shtml'
p1073
sg9
(lp1074
V\u8001\u4eba
p1075
aV\u8001\u5e74\u4eba
p1076
aV\u6295\u4fdd
p1077
aV\u4fdd\u9669
p1078
aV\u9053\u5fb7
p1079
aV\u597d\u5fc3
p1080
aV80
p1081
aV90
p1082
aV\u5e74\u8f7b\u4eba
p1083
aV\u8bb9\u8bc8
p1084
asa(dp1085
g5
S'\xa1\xb0\xb7\xf6\xc0\xcf\xc8\xcb\xcf\xd5\xa1\xb1\xc4\xdc\xb7\xf1\xc6\xc6\xbd\xe2\xa1\xb0\xb7\xf6\xc0\xcf\xa1\xb1\xc0\xa7\xbe\xd6\xa3\xbf'
p1086
sg7
S'http://www.cnr.cn/newscenter/comment/latest/20151021/t20151021_520221606.shtml'
p1087
sg9
(lp1088
V\u8001\u4eba
p1089
aV\u4fdd\u9669
p1090
aV90
p1091
aV\u6295\u4fdd
p1092
aV\u8bc9\u8bbc\u8d39
p1093
aV\u793e\u4f1a
p1094
aV80
p1095
aV2.6
p1096
aV\u6295\u4fdd\u4eba
p1097
aV\u7528\u6237
p1098
asa(dp1099
g5
S'\xd4\xa4\xb7\xc0\xba\xcd\xbe\xc8\xd6\xce\xc0\xcf\xc8\xcb\xb5\xf8\xb5\xb9\xca\xc7\xb8\xf6\xb9\xab\xb9\xb2\xbf\xce\xcc\xe2'
p1100
sg7
S'http://www.cnr.cn/newscenter/comment/latest/20151017/t20151017_520178638.shtml'
p1101
sg9
(lp1102
V\u8dcc\u5012
p1103
aV\u8001\u4eba
p1104
aV\u793e\u533a
p1105
aV\u9f99\u534e
p1106
aV\u8001\u5e74\u4eba
p1107
aV\u9884\u9632
p1108
aV80
p1109
aV60
p1110
aV\u8dcc\u8de4
p1111
aV\u4ee5\u4e0a
p1112
asasg35
g36
((lp1113
g1082
ag1081
atp1114
Rp1115
sa(dp1116
g2
(lp1117
(dp1118
g5
S'\xd0\xa1\xd1\xa7\xc9\xfa\xc7\xe9\xca\xe9\xd7\xdf\xba\xec\xcd\xf8\xc2\xe7\xa3\xac\xb5\xa3\xd3\xc7\xc1\xcb\xcb\xad\xa3\xbf'
p1119
sg7
S'http://www.cnr.cn/newscenter/comment/latest/20151231/t20151231_520989888.shtml'
p1120
sg9
(lp1121
V\u65e9\u719f
p1122
aV\u5b69\u5b50
p1123
aV\u60c5\u4e66
p1124
aV\u81ea\u9192
p1125
aV\u81ea\u5f8b
p1126
aV\u5bb6\u957f
p1127
aV\u6559\u80b2
p1128
aV\u672a\u6210\u5e74
p1129
aV\u81ea\u7701
p1130
aV\u672a\u6210\u5e74\u4eba
p1131
asa(dp1132
g5
S'\xc4\xb3\xd0\xa9\xc2\xd9\xc9\xa5\xb5\xc4\xca\xa6\xb5\xc2\xca\xc7\xb1\xbb\xa1\xb0\xb9\xdf\xa1\xb1\xb3\xf6\xc0\xb4\xb5\xc4'
p1133
sg7
S'http://www.cnr.cn/newscenter/comment/latest/20151227/t20151227_520940485.shtml'
p1134
sg9
(lp1135
V\u7325\u7410
p1136
aV\u6bb7\u67d0
p1137
aV\u5b66\u751f
p1138
aV\u6559\u5e08
p1139
aV\u5bb6\u957f
p1140
aV\u8001\u5e08
p1141
aV\u5e08\u5fb7
p1142
aV\u5b69\u5b50
p1143
aV\u4f73\u53bf
p1144
aV\u6559\u80b2
p1145
asa(dp1146
g5
S'\xd5\xc5\xb4\xab\xb7\xa2\xa3\xba\xd0\xa1\xd1\xa7\xc9\xfa\xd6\xdc\xc4\xa9\xd3\xa6\xd0\xd5\xa1\xb0\xcd\xe6\xa1\xb1\xb2\xbb\xd0\xd5\xa1\xb0\xc3\xa6\xa1\xb1'
p1147
sg7
S'http://www.cnr.cn/newscenter/comment/latest/20151215/t20151215_520802076.shtml'
p1148
sg9
(lp1149
V\u5468\u672b
p1150
aV\u53ef\u4ee5
p1151
aV\u5b69\u5b50
p1152
aV\u5bb6\u957f
p1153
aV\u5c0f\u6db5
p1154
aV\u5965\u6570
p1155
aV\u5e94\u8be5
p1156
aV\u753b\u753b
p1157
aV\u5c0f\u5b66\u751f
p1158
aV\u94a2\u7434
p1159
asa(dp1160
g5
S'\xd1\xe0\xd5\xd4\xcd\xed\xb1\xa8\xa3\xba\xa1\xb0\xc3\xbf\xc8\xd5\xd0\xb4\xd7\xf7\xd2\xb53\xd0\xa1\xca\xb1\xa1\xb1\xbf\xbc\xce\xca\xbd\xcc\xd3\xfd\xbc\xf5\xb8\xba'
p1161
sg7
S'http://www.cnr.cn/newscenter/comment/latest/20151127/t20151127_520616989.shtml'
p1162
sg9
(lp1163
V\u51cf\u8d1f
p1164
aV\u5bb6\u957f
p1165
aV\u5b66\u751f
p1166
aV\u5b66\u6821
p1167
aV\u5b69\u5b50
p1168
aV\u589e\u8d1f
p1169
aV\u4f5c\u4e1a
p1170
aV\u6559\u80b2\u90e8\u95e8
p1171
aV\u6559\u80b2
p1172
aV\u5347\u5b66\u538b\u529b
p1173
asa(dp1174
g5
S'\xbb\xa5\xc1\xaa\xcd\xf8\xb7\xc0\xb9\xd5\xa1\xa1\xca\xc7\xd4\xde\xbb\xb9\xca\xc7\xb2\xc8'
p1175
sg7
S'http://www.cnr.cn/newscenter/comment/latest/20151123/t20151123_520568554.shtml'
p1176
sg9
(lp1177
V\u5e73\u53f0
p1178
aV\u8d28\u7591
p1179
aV\u5b69\u5b50
p1180
aV\u5bb6\u957f
p1181
aV\u4e8c\u5b57
p1182
aV\u6280\u672f
p1183
aV\u8d70\u4e0a\u6b63\u8f68
p1184
aV\u6c42\u7a33
p1185
aV\u6c42\u65b0
p1186
aV\u4e92\u8054\u7f51
p1187
asa(dp1188
g5
S'\xc9\xd9\xc4\xea\xbf\xce\xcc\xc3\xe2\xa7\xcb\xc0\xb1\xb3\xba\xf3\xd2\xfe\xb2\xd8\xb5\xc4\xce\xa3\xcf\xd5\xd0\xc5\xba\xc5'
p1189
sg7
S'http://www.cnr.cn/newscenter/comment/latest/20151117/t20151117_520522183.shtml'
p1190
sg9
(lp1191
V\u5b69\u5b50
p1192
aV\u5b66\u751f
p1193
aV\u731d\u6b7b
p1194
aV\u65e9\u4e0a
p1195
aV\u4e91\u535a
p1196
aV\u5bb6\u957f
p1197
aV\u60b2\u5267
p1198
aV\u5c11\u5e74
p1199
aV\u8bfe\u5802
p1200
aV\u5929\u4e0b\u7236\u6bcd
p1201
asa(dp1202
g5
S'\xd4\xd9\xb2\xbb\xc5\xe3\xcb\xfd\xa3\xac\xbe\xcd\xb3\xa4\xb4\xf3\xc1\xcb'
p1203
sg7
S'http://www.cnr.cn/newscenter/comment/latest/20151103/t20151103_520372639.shtml'
p1204
sg9
(lp1205
V\u7236\u4eb2
p1206
aV\u5b69\u5b50
p1207
aV\u5bb6\u5ead\u6559\u80b2
p1208
aV\u5973\u513f
p1209
aV\u7236\u6bcd
p1210
aV\u7f3a\u4f4d
p1211
aV\u966a\u4f34
p1212
aV\u5e7c\u513f\u56ed
p1213
aV\u6559\u80b2
p1214
aV\u878d\u5165
p1215
asa(dp1216
g5
S'\xc8\xe7\xba\xce\xb8\xc4\xb1\xe4\xca\xfd\xb0\xd9\xcd\xf2\xc5\xae\xcd\xaf\xb5\xc4\xc3\xfc\xd4\xcb'
p1217
sg7
S'http://www.cnr.cn/newscenter/comment/latest/20151103/t20151103_520371343.shtml'
p1218
sg9
(lp1219
V\u6559\u80b2
p1220
aVCamfed
p1221
aV\u5973\u5b69
p1222
aV\u8d2b\u56f0
p1223
aV\u5b69\u5b50
p1224
aV\u5973\u7ae5
p1225
aV\u5979\u4eec
p1226
aV\u8d44\u672c
p1227
aV\u793e\u533a
p1228
aV\u5bb6\u957f
p1229
asa(dp1230
g5
S'\xcb\xad\xc0\xb4\xbc\xec\xb2\xe9\xc0\xcf\xca\xa6\xb2\xbc\xd6\xc3\xb5\xc4\xa1\xb0\xc6\xe6\xdd\xe2\xd7\xf7\xd2\xb5\xa1\xb1'
p1231
sg7
S'http://www.cnr.cn/newscenter/comment/latest/20151028/t20151028_520306107.shtml'
p1232
sg9
(lp1233
V\u4f5c\u4e1a
p1234
aV\u5bb6\u957f
p1235
aV\u5947\u8469
p1236
aV\u5b69\u5b50
p1237
aV\u5e7c\u513f\u56ed
p1238
aV\u4e07\u5723\u8282
p1239
aV\u5c0f\u5b66
p1240
aV\u8001\u5e08
p1241
aV\u5b66\u751f
p1242
aV\u9ad8\u96be\u5ea6
p1243
asa(dp1244
g5
S'\xc4\xd0\xcd\xaf\xb1\xbb\xc2\xe3\xc5\xc4\xa3\xac\xc0\xcf\xca\xa6\xb9\xfb\xd5\xe6\xa1\xb0\xce\xaf\xc7\xfc\xa1\xb1\xa3\xbf'
p1245
sg7
S'http://www.cnr.cn/newscenter/comment/latest/20151020/t20151020_520208215.shtml'
p1246
sg9
(lp1247
V\u5b69\u5b50
p1248
aV\u8001\u5e08
p1249
aV\u5bb6\u957f
p1250
aV\u62cd\u7167
p1251
aV\u5e7c\u513f\u56ed
p1252
aV\u7167\u7247
p1253
aV\u8bb2\u89e3
p1254
aV\u6d89\u4e8b
p1255
aV\u88f8\u7167
p1256
aV\u8fd9\u6837
p1257
asa(dp1258
g5
S'\xcd\xe7\xcd\xaf\xca\xaf\xcd\xb7\xd4\xd2\xc1\xd1\xb8\xdf\xcc\xfa\xb3\xb5\xb4\xb0\xa3\xac\xd5\xa6\xd6\xce\xa1\xb0\xd0\xdc\xba\xa2\xd7\xd3\xa1\xb1\xa3\xbf'
p1259
sg7
S'http://www.cnr.cn/newscenter/comment/latest/20151010/t20151010_520102911.shtml'
p1260
sg9
(lp1261
V\u5b69\u5b50
p1262
aV\u5bb6\u957f
p1263
aV\u540e\u679c
p1264
aV\u51fb\u88c2
p1265
aV\u505a\u9519\u4e8b
p1266
aV\u6559\u80b2
p1267
aV\u9ad8\u94c1
p1268
aV\u98de\u9a70
p1269
aV\u8f66\u7a97
p1270
aV\u77e5\u9053
p1271
asasg35
g36
((lp1272
g1143
ag1145
ag1140
atp1273
Rp1274
sa(dp1275
g2
(lp1276
(dp1277
g5
S'\xb2\xbb\xc4\xdc\xc8\xc3\xbb\xc6\xc5\xa3\xb5\xc4\xa1\xb0\xc7\xc0\xc6\xb1\xc3\xd8\xf3\xc5\xa1\xb1\xb3\xc9\xa1\xb0\xc3\xd5\xa1\xb1'
p1278
sg7
S'http://www.cnr.cn/newscenter/comment/latest/20151210/t20151210_520752187.shtml'
p1279
sg9
(lp1280
V\u9ec4\u725b
p1281
aV\u62a2\u7968
p1282
aV\u7968\u6e90
p1283
aV12306
p1284
aV\u706b\u8f66\u7968
p1285
aV\u5b98\u7f51
p1286
aV\u9a8c\u8bc1\u7801
p1287
aV\u8d2d\u7968
p1288
aV\u516c\u4f17
p1289
aV\u94c1\u8def
p1290
asa(dp1291
g5
S'\xd1\xe0\xd5\xd4\xcd\xed\xb1\xa8\xa3\xba\xb1\xf0\xc8\xc3\xa1\xb0\xbb\xc6\xc5\xa3\xa1\xb1\xb5\xc4\xc7\xc0\xc6\xb1\xc3\xd8\xbc\xbc\xd5\xe6\xb5\xc4\xb3\xc9\xc3\xd5'
p1292
sg7
S'http://www.cnr.cn/newscenter/comment/latest/20151127/t20151127_520617067.shtml'
p1293
sg9
(lp1294
V\u9ec4\u725b
p1295
aV\u6625\u8fd0
p1296
aV\u94c1\u8def
p1297
aV\u90e8\u95e8
p1298
aV\u62a2\u7968
p1299
aV\u56e4\u7968
p1300
aV\u8f66\u7968
p1301
aV\u706b\u8f66\u7968
p1302
aV\u8b6c\u5982
p1303
aV\u4ee3\u552e\u70b9
p1304
asa(dp1305
g5
S'\xd5\xe3\xb4\xf3\xc5\xae\xc9\xfa\xc4\xdc\xb7\xf1\xb8\xe6\xd3\xae\xa1\xb0\xcc\xfa\xc0\xcf\xb4\xf3\xa1\xb1\xa3\xbf'
p1306
sg7
S'http://www.cnr.cn/newscenter/comment/latest/20151018/t20151018_520183211.shtml'
p1307
sg9
(lp1308
V\u6d59\u5927
p1309
aV\u94c1\u8def\u5c40
p1310
aV\u5973\u751f
p1311
aV\u9648\u7ed8\u8863
p1312
aV\u706b\u8f66\u7968
p1313
aV\u94c1\u8001\u5927
p1314
aV\u5b9e\u540d\u5236
p1315
aV\u8865\u7968
p1316
aV\u8f66\u7968
p1317
aV\u9057\u5931
p1318
asa(dp1319
g5
S'\xb6\xaa\xc6\xb1\xa1\xb0\xb6\xfe\xb4\xce\xb9\xba\xc6\xb1\xa1\xb1 \xd2\xaa\xca\xb5\xc3\xfb\xd6\xc6\xba\xce\xd3\xc3\xa3\xbf'
p1320
sg7
S'http://www.cnr.cn/newscenter/comment/latest/20151017/t20151017_520178593.shtml'
p1321
sg9
(lp1322
V\u4e58\u5ba2
p1323
aV\u94c1\u8def
p1324
aV\u8f66\u7968
p1325
aV\u90e8\u95e8
p1326
aV\u4e22\u7968
p1327
aV\u7eb8\u8d28
p1328
aV\u706b\u8f66\u7968
p1329
aV\u665a\u70b9
p1330
aV\u8eab\u4efd\u8bc1
p1331
aV\u5217\u8f66
p1332
asasg35
g36
((lp1333
g1302
ag1299
ag1295
ag1297
atp1334
Rp1335
sa(dp1336
g2
(lp1337
(dp1338
g5
S'\xa1\xb0\xca\xae\xc8\xfd\xce\xe5\xa1\xb1\xc8\xfd\xc5\xa9\xb7\xa2\xd5\xb9\xa3\xba\xd3\xc3\xd0\xc2\xc0\xed\xc4\xee\xc6\xc6\xbd\xe2\xd0\xc2\xc4\xd1\xcc\xe2'
p1339
sg7
S'http://www.cnr.cn/newscenter/comment/latest/20151226/t20151226_520934762.shtml'
p1340
sg9
(lp1341
V\u519c\u4e1a
p1342
aV\u53d1\u5c55
p1343
aV\u4e09\u519c
p1344
aV\u6276\u8d2b
p1345
aV\u8131\u8d2b
p1346
aV\u519c\u6751
p1347
aV\u77ed\u677f
p1348
aV\u610f\u8bc6
p1349
aV\u6211\u56fd
p1350
aV\u7cae\u98df
p1351
asa(dp1352
g5
S'\xbb\xa5\xc1\xaa\xcd\xf8\xa3\xab\xb4\xf2\xcd\xa8\xd0\xc5\xcf\xa2\xba\xe8\xb9\xb5\xa1\xb0\xd7\xee\xba\xf3\xd2\xbb\xb9\xab\xc0\xef\xa1\xb1'
p1353
sg7
S'http://www.cnr.cn/newscenter/comment/latest/20151217/t20151217_520829242.shtml'
p1354
sg9
(lp1355
V\u8131\u8d2b
p1356
aV\u4e92\u8054\u7f51
p1357
aV\u5b9e\u73b0
p1358
aV\u653b\u575a
p1359
aV\u8d2b\u56f0\u4eba\u53e3
p1360
aV\u6276\u8d2b
p1361
aV\u8d2b\u56f0
p1362
aV\u4fe1\u606f
p1363
aV\u53ef\u4ee5
p1364
aV\u653b\u575a\u6218
p1365
asa(dp1366
g5
S'\xa1\xbe\xd0\xc2\xb3\xa3\xcc\xac \xb9\xe2\xc3\xf7\xc2\xdb\xa1\xbf\xb4\xf2\xd3\xae\xcd\xd1\xc6\xb6\xb9\xa5\xbc\xe1\xd5\xbd\xb7\xa2\xd5\xb9\xb2\xbb\xb5\xf4\xb6\xd3'
p1367
sg7
S'http://www.cnr.cn/newscenter/comment/latest/20151214/t20151214_520788488.shtml'
p1368
sg9
(lp1369
V\u8131\u8d2b
p1370
aV\u8d2b\u56f0\u4eba\u53e3
p1371
aV\u6276\u8d2b
p1372
aV\u5e38\u6001
p1373
aV\u5149\u660e
p1374
aV\u519c\u6751
p1375
aV\u4f0d\u632f\u519b
p1376
aV\u53d1\u5c55
p1377
aV\u5168\u9762
p1378
aV\u5b9e\u73b0
p1379
asa(dp1380
g5
S'\xa1\xb6\xbe\xf6\xb6\xa8\xa1\xb732\xb4\xce\xc7\xbf\xb5\xf7"\xbe\xab\xd7\xbc" \xcd\xb9\xcf\xd4\xd6\xd0\xd1\xeb\xbe\xf6\xd0\xc4'
p1381
sg7
S'http://www.cnr.cn/newscenter/comment/latest/20151209/t20151209_520734029.shtml'
p1382
sg9
(lp1383
V\u8131\u8d2b
p1384
aV\u7cbe\u51c6
p1385
aV\u6276\u8d2b
p1386
aV\u653b\u575a\u6218
p1387
aV\u6276\u8d2b\u5f00\u53d1
p1388
aV\u653b\u575a
p1389
aV\u6253\u8d62
p1390
aV\u575a\u6301
p1391
aV\u521b\u65b0
p1392
aV\u8d2b\u56f0
p1393
asa(dp1394
g5
S'\xd2\xd4\xb8\xc4\xb8\xef\xb4\xb4\xd0\xc2\xbc\xd3\xbf\xec\xbe\xab\xd7\xbc\xb7\xf6\xc6\xb6\xb5\xc4\xb2\xbd\xb7\xa5'
p1395
sg7
S'http://www.cnr.cn/newscenter/comment/latest/20151116/t20151116_520511105.shtml'
p1396
sg9
(lp1397
V\u7cbe\u51c6
p1398
aV\u6276\u8d2b
p1399
aV\u8131\u8d2b
p1400
aV\u8d2b\u56f0\u4eba\u53e3
p1401
aV\u8bc6\u522b
p1402
aV\u8bc4\u4f30
p1403
aV\u8d2b\u56f0
p1404
aV\u5e2e\u6276
p1405
aV\u653f\u7b56
p1406
aV\u4e07\u4eba
p1407
asa(dp1408
g5
S'\xc1\xba\xba\xe2\xa3\xba\xb2\xbb\xbb\xbc\xc6\xb6\xc0\xa7\xa3\xac\xb6\xf8\xbb\xbc\xb2\xbb\xce\xca'
p1409
sg7
S'http://www.cnr.cn/newscenter/comment/latest/20151103/t20151103_520377191.shtml'
p1410
sg9
(lp1411
V\u8131\u8d2b
p1412
aV\u5c0f\u5eb7\u793e\u4f1a
p1413
aV\u4eba\u6c11
p1414
aV\u4e0d\u6551
p1415
aV\u56f0\u96be
p1416
aV\u5bb6\u5ead
p1417
aV\u4e00\u4e2a
p1418
aV\u7279\u56f0
p1419
aV\u89e3\u653e
p1420
aV\u6276\u8d2b
p1421
asa(dp1422
g5
S'\xa1\xb0\xca\xae\xc8\xfd\xce\xe5\xa1\xb1\xc8\xab\xc3\xe6\xbd\xa8\xb3\xc9\xd0\xa1\xbf\xb5\xb5\xc4\xc3\xf1\xc9\xfa\xcd\xbc\xbe\xb0'
p1423
sg7
S'http://www.cnr.cn/newscenter/comment/latest/20151028/t20151028_520309522.shtml'
p1424
sg9
(lp1425
V\u5341\u4e09
p1426
aV\u6c11\u751f
p1427
aV\u8131\u8d2b
p1428
aV\u5168\u9762
p1429
aV\u4e00\u6279
p1430
aV\u751f\u6001
p1431
aV\u5c0f\u5eb7\u793e\u4f1a
p1432
aV\u6276\u8d2b
p1433
aV\u8d8a\u6765\u8d8a
p1434
aV\u5c0f\u5eb7
p1435
asa(dp1436
g5
S'\xc8\xe7\xba\xce\xb2\xc5\xc4\xdc\xb6\xc5\xbe\xf8\xa1\xb0\xd3\xd0\xcb\xbd\xbc\xd2\xb3\xb5\xbb\xb9\xb3\xc9\xb7\xf6\xc6\xb6\xb6\xd4\xcf\xf3\xa1\xb1'
p1437
sg7
S'http://www.cnr.cn/newscenter/comment/latest/20151015/t20151015_520150726.shtml'
p1438
sg9
(lp1439
V\u6276\u8d2b
p1440
aV\u9020\u5047
p1441
aV\u9a6c\u5c71\u53bf
p1442
aV\u57fa\u5c42
p1443
aV\u8131\u8d2b
p1444
aV\u8d44\u91d1
p1445
aV\u653b\u575a
p1446
aV\u5de5\u4f5c
p1447
aV\u56fd\u52a1\u9662\u6276\u8d2b\u529e
p1448
aV\u76d1\u7ba1
p1449
asa(dp1450
g5
S'\xbe\xaf\xcc\xe8\xc2\xed\xc9\xbd\xb7\xf6\xc6\xb6\xb3\xf3\xce\xc5\xb1\xb3\xba\xf3\xb5\xc4\xd5\xfe\xd6\xce\xc9\xfa\xcc\xac'
p1451
sg7
S'http://www.cnr.cn/newscenter/comment/latest/20151013/t20151013_520128213.shtml'
p1452
sg9
(lp1453
V\u6276\u8d2b
p1454
aV\u9a6c\u5c71\u53bf
p1455
aV\u5e7f\u897f
p1456
aV\u5bcc\u4eba
p1457
aV\u4e8b\u4ef6
p1458
aV\u9a6c\u5c71
p1459
aV\u8d44\u91d1
p1460
aV3119
p1461
aV\u8131\u8d2b
p1462
aV\u5ba1\u6279\u6743
p1463
asasg35
g36
((lp1464
g1356
ag1361
atp1465
Rp1466
sa(dp1467
g2
(lp1468
(dp1469
g5
S'2015\xc4\xea\xd6\xd0\xb9\xfa\xb5\xe7\xd3\xb0\xc6\xc6\xbc\xcd\xc2\xbc\xa3\xac\xca\xd0\xb3\xa1\xd4\xbd\xba\xc3\xbe\xe7\xb1\xbe\xd4\xbd\xca\xc7\xba\xcb\xd0\xc4'
p1470
sg7
S'http://www.cnr.cn/newscenter/comment/latest/20160106/t20160106_521045020.shtml'
p1471
sg9
(lp1472
V\u7968\u623f
p1473
aV\u56fd\u4ea7\u7247
p1474
aV\u7535\u5f71
p1475
aV\u70c2\u7247
p1476
aV\u53e3\u7891
p1477
aV\u89c2\u4f17
p1478
aV\u5f71\u7247
p1479
aV\u8d28\u91cf
p1480
aV\u53cc\u8d62
p1481
aV\u505a\u5230
p1482
asa(dp1483
g5
S'\xa1\xb0\xbb\xa5\xc1\xaa\xcd\xf8+\xa1\xb1\xca\xb1\xb4\xfa\xb5\xc4\xce\xc4\xd2\xd5\xc5\xfa\xc6\xc0\xb3\xa4\xca\xb2\xc3\xb4\xd1\xf9\xa3\xbf'
p1484
sg7
S'http://www.cnr.cn/newscenter/comment/latest/20151105/t20151105_520402377.shtml'
p1485
sg9
(lp1486
V\u6279\u8bc4
p1487
aV\u7535\u5f71
p1488
aV\u5a92\u4ecb
p1489
aV\u4e92\u8054\u7f51
p1490
aV\u6587\u827a\u6279\u8bc4
p1491
aV\u65f6\u4ee3
p1492
aV\u7968\u623f
p1493
aV\u6807\u51c6
p1494
aV\u8bed\u5883
p1495
aV\u7f51\u7edc
p1496
asa(dp1497
g5
S'\xa1\xb0\xb3\xad\xcf\xae\xa1\xb1\xb6\xbc\xca\xc7\xca\xd0\xb3\xa1\xb9\xdf\xb3\xf6\xc0\xb4\xb5\xc4'
p1498
sg7
S'http://www.cnr.cn/newscenter/comment/latest/20151023/t20151023_520248674.shtml'
p1499
sg9
(lp1500
V\u56fd\u4ea7\u7247
p1501
aV\u6284\u88ad
p1502
aV\u590f\u6d1b\u7279
p1503
aV\u70e6\u607c
p1504
aV\u7968\u623f
p1505
aV\u7535\u5f71
p1506
aV\u81f4\u656c
p1507
aV\u5e02\u573a
p1508
aV\u5f71\u7247
p1509
aV\u79d1\u6ce2
p1510
asa(dp1511
g5
S'\xcf\xc4\xc2\xe5\xb2\xbb\xd3\xc3\xb7\xb3\xc4\xd5'
p1512
sg7
S'http://www.cnr.cn/newscenter/comment/latest/20151012/t20151012_520114995.shtml'
p1513
sg9
(lp1514
V\u590f\u6d1b
p1515
aV\u70e6\u607c
p1516
aV\u5973\u795e
p1517
aV\u7535\u5f71
p1518
aV\u57cb\u6028
p1519
aV\u7968\u623f
p1520
aV\u590f\u6d1b\u7279
p1521
aV\u5176\u5b9e
p1522
aV\u751f\u6d3b
p1523
aV\u73b0\u5b9e
p1524
asa(dp1525
g5
S'\xb8\xf8\xd3\xe8\xd2\xd5\xca\xf5\xd7\xf0\xd1\xcf\xa3\xac\xb6\xf8\xb2\xbb\xca\xc7\xc1\xae\xbc\xdb\xcd\xac\xc7\xe9'
p1526
sg7
S'http://www.cnr.cn/newscenter/comment/latest/20151012/t20151012_520114885.shtml'
p1527
sg9
(lp1528
V\u7530\u534e
p1529
aV\u7535\u5f71
p1530
aV\u827a\u672f\u5bb6
p1531
aV\u827a\u672f
p1532
aV\u8001\u5e08
p1533
aV\u4ed6\u4eec
p1534
aV\u7968\u623f
p1535
aV\u5a92\u4f53
p1536
aV\u6f14\u5458
p1537
aV\u5973\u6f14\u5458
p1538
asasg35
g36
((lp1539
g1488
ag1493
atp1540
Rp1541
sa(dp1542
g2
(lp1543
(dp1544
g5
S'\xb6\xc1\xb6\xae\xb5\xd6\xd6\xc6\xa1\xb0\xd2\xa5\xd1\xd4\xa1\xb1\xb1\xb3\xba\xf3\xb5\xc4\xc6\xda\xb4\xfd'
p1545
sg7
S'http://www.cnr.cn/newscenter/comment/latest/20151111/t20151111_520473221.shtml'
p1546
sg9
(lp1547
V\u4e13\u8f66
p1548
aV\u610f\u89c1
p1549
aV\u51fa\u79df\u8f66
p1550
aV\u5927\u591a\u6570
p1551
aV\u6539\u9769
p1552
aV93
p1553
aV3220
p1554
aV\u6700\u5927\u516c\u7ea6\u6570
p1555
aV\u6807\u9898
p1556
aV\u975e\u6cd5
p1557
asa(dp1558
g5
S'\xb3\xf6\xd7\xe2\xb3\xb5\xb8\xc4\xb8\xef\xb2\xbb\xb7\xc1\xc8\xc3\xb2\xa9\xde\xc4\xb8\xfc\xb3\xe4\xb7\xd6\xd0\xa9'
p1559
sg7
S'http://www.cnr.cn/newscenter/comment/latest/20151109/t20151109_520442652.shtml'
p1560
sg9
(lp1561
V\u4e13\u8f66
p1562
aV\u51fa\u79df\u8f66
p1563
aV\u6539\u9769
p1564
aV\u4e1a\u6001
p1565
aV\u4ea4\u901a\u8fd0\u8f93
p1566
aV\u4f20\u7edf
p1567
aV\u76d1\u7ba1
p1568
aV\u7acb\u6cd5
p1569
aV\u610f\u89c1
p1570
aV\u5229\u76ca
p1571
asa(dp1572
g5
S'\xb3\xf6\xd7\xe2\xb3\xb5\xb8\xc4\xb8\xef\xb9\xb2\xcf\xed\xba\xcd\xb9\xab\xc6\xbd\xb6\xbc\xb2\xbb\xc4\xdc\xc9\xd9'
p1573
sg7
S'http://www.cnr.cn/newscenter/comment/latest/20151012/t20151012_520114817.shtml'
p1574
sg9
(lp1575
V\u51fa\u79df\u8f66
p1576
aV\u4e13\u8f66
p1577
aV\u521b\u65b0
p1578
aV\u5e02\u573a
p1579
aV\u670d\u52a1
p1580
aV\u5171\u4eab
p1581
aV\u53c2\u4e0e\u8005
p1582
aV\u4f20\u7edf
p1583
aV\u4e1a\u6001
p1584
aV\u76d1\u7ba1
p1585
asasg35
g36
((lp1586
g1562
ag1563
atp1587
Rp1588
sa(dp1589
g2
(lp1590
(dp1591
g5
S'\xce\xaa\xc1\xcb\xb8\xfc\xc3\xc0\xba\xc3\xb5\xc4\xd6\xd0\xb9\xfa\xed\xc6\xed\xc2\xc7\xb0\xd0\xd0\xa1\xaa\xa1\xaa2016\xc4\xea\xd0\xc2\xc4\xea\xcf\xd7\xb4\xca'
p1592
sg7
S'http://www.cnr.cn/newscenter/comment/latest/20160101/t20160101_520999294.shtml'
p1593
sg9
(lp1594
V\u4e2d\u56fd
p1595
aV\u7f8e\u597d
p1596
aV\u53d1\u5c55
p1597
aV\u6211\u4eec
p1598
aV\u4e16\u754c
p1599
aV\u6539\u9769
p1600
aV\u4e00\u5e74
p1601
aV\u68a6\u60f3
p1602
aV\u5fc5\u5c06
p1603
aV\u521b\u65b0
p1604
asa(dp1605
g5
S'\xb8\xc4\xb8\xef\xb4\xb4\xd0\xc2 \xbc\xe1\xb3\xd6\xbd\xe2\xb7\xc5\xba\xcd\xb7\xa2\xd5\xb9\xc9\xe7\xbb\xe1\xc9\xfa\xb2\xfa\xc1\xa6'
p1606
sg7
S'http://www.cnr.cn/newscenter/comment/latest/20151226/t20151226_520933330.shtml'
p1607
sg9
(lp1608
V\u6539\u9769
p1609
aV\u751f\u4ea7\u529b
p1610
aV\u53d1\u5c55
p1611
aV\u793e\u4f1a
p1612
aV\u7ed3\u6784\u6027
p1613
aV\u7ecf\u6d4e
p1614
aV\u521b\u65b0
p1615
aV\u793e\u4f1a\u4e3b\u4e49
p1616
aV\u89c4\u5f8b
p1617
aV\u575a\u6301
p1618
asa(dp1619
g5
S'\xc6\xc6\xc1\xa2\xbd\xe1\xba\xcf\xcd\xc6\xbd\xf8\xb9\xa9\xb8\xf8\xb2\xe0\xb8\xc4\xb8\xef'
p1620
sg7
S'http://www.cnr.cn/newscenter/comment/latest/20151225/t20151225_520923648.shtml'
p1621
sg9
(lp1622
V\u4f9b\u7ed9
p1623
aV\u6539\u9769
p1624
aV\u7ecf\u6d4e
p1625
aV\u9700\u6c42
p1626
aV\u5e38\u6001
p1627
aV\u53d1\u5c55
p1628
aV\u521b\u65b0
p1629
aV\u9002\u5e94
p1630
aV\u63a8\u52a8
p1631
aV\u4ea7\u80fd
p1632
asa(dp1633
g5
S'\xc0\xe5\xc7\xe5\xb3\xf6\xd7\xe2\xb3\xb5\xb8\xc4\xb8\xef\xc0\xef\xb5\xc4\xb4\xb4\xd0\xc2\xd3\xeb\xb9\xe6\xb7\xb6'
p1634
sg7
S'http://www.cnr.cn/newscenter/comment/latest/20151014/t20151014_520141432.shtml'
p1635
sg9
(lp1636
V\u521b\u65b0
p1637
aV\u51fa\u79df\u8f66
p1638
aV\u5229\u76ca
p1639
aV\u89c4\u8303
p1640
aV\u9f13\u52b1
p1641
aV\u7ade\u4e89
p1642
aV\u9884\u7ea6
p1643
aV\u5f81\u6c42\u610f\u89c1
p1644
aV\u6539\u9769
p1645
aV\u5398\u6e05
p1646
asa(dp1647
g5
S'\xd6\xce\xc0\xed\xb4\xb4\xd0\xc2\xa3\xac\xa1\xb0\xca\xd4\xa1\xb1\xc1\xcb\xb2\xc5\xd3\xd0\xd5\xd0'
p1648
sg7
S'http://www.cnr.cn/newscenter/comment/latest/20151011/t20151011_520110473.shtml'
p1649
sg9
(lp1650
V\u4e13\u8f66
p1651
aV\u51fa\u79df\u8f66
p1652
aV\u521b\u65b0
p1653
aV\u6cbb\u7406
p1654
aV\u5f81\u6c42\u610f\u89c1
p1655
aV\u6539\u9769
p1656
aV\u7ecf\u8425
p1657
aV\u884c\u4e1a
p1658
aV\u5b9e\u8df5
p1659
aV\u4ea4\u901a\u59d4
p1660
asasg35
g36
((lp1661
g1609
ag1615
atp1662
Rp1663
sa(dp1664
g2
(lp1665
(dp1666
g5
S'\xcd\xac\xd1\xa7\xbe\xdb\xbb\xe1\xb5\xbd\xb5\xd7\xb8\xc3\xb2\xbb\xb8\xc3\xc8\xf6\xc7\xae\xbf\xf1\xbb\xb6\xa3\xbf'
p1667
sg7
S'http://www.cnr.cn/newscenter/comment/latest/20160103/t20160103_521007329.shtml'
p1668
sg9
(lp1669
V\u540c\u5b66
p1670
aV\u540c\u5b66\u805a\u4f1a
p1671
aV\u6000\u5ff5
p1672
aV\u571f\u8c6a
p1673
aV\u9752\u6625
p1674
aV\u65b9\u5f0f
p1675
aV\u5b66\u6821
p1676
aV\u805a\u4f1a
p1677
aV\u6614\u65e5
p1678
aV\u56de\u5fc6
p1679
asa(dp1680
g5
S'\xcd\xac\xd1\xa7\xbe\xdb\xbb\xe1\xd3\xd0\xc4\xc7\xc3\xb4\xb8\xb4\xd4\xd3\xc2\xf0\xa3\xbf'
p1681
sg7
S'http://www.cnr.cn/newscenter/comment/latest/20151009/t20151009_520085775.shtml'
p1682
sg9
(lp1683
V\u540c\u5b66\u4f1a
p1684
aV\u540c\u5b66\u805a\u4f1a
p1685
aV\u540c\u5b66
p1686
aV\u805a\u4f1a
p1687
aV\u9752\u6625
p1688
aV\u65b0\u4e09\u4fd7
p1689
aV\u964c\u751f\u4eba
p1690
aV\u65f6\u5149
p1691
aV\u590d\u6742
p1692
aV\u6709\u4e9b
p1693
asasg35
g36
((lp1694
g1686
ag1688
ag1685
ag1687
atp1695
Rp1696
sa(dp1697
g2
(lp1698
(dp1699
g5
S'\xbf\xed\xb4\xf8\xcc\xe1\xcb\xd9\xbd\xb5\xb7\xd1\xa3\xac\xd5\xe6\xb5\xc4\xb4\xef\xb1\xea\xc1\xcb\xc2\xf0'
p1700
sg7
S'http://www.cnr.cn/newscenter/comment/latest/20151225/t20151225_520921546.shtml'
p1701
sg9
(lp1702
V\u964d\u8d39
p1703
aV\u63d0\u901f
p1704
aV\u8fd0\u8425\u5546
p1705
aV\u5de5\u4fe1\u90e8
p1706
aV\u4e09\u5927
p1707
aV\u7535\u4fe1
p1708
aV\u6d41\u91cf
p1709
aV\u79fb\u52a8
p1710
aV2015
p1711
aV10
p1712
asa(dp1713
g5
S'\xbf\xb4\xc7\xe5\xa1\xb0\xbf\xcb\xbf\xdb\xc1\xf7\xc1\xbf\xa1\xb1\xb7\xe7\xb2\xa8\xb1\xb3\xba\xf3\xb5\xc4\xc3\xf1\xd2\xe2'
p1714
sg7
S'http://www.cnr.cn/newscenter/comment/latest/20151028/t20151028_520305941.shtml'
p1715
sg9
(lp1716
V\u6d41\u91cf
p1717
aV\u6e05\u96f6
p1718
aV\u8fd0\u8425\u5546
p1719
aV\u964d\u8d39
p1720
aV\u514b\u6263
p1721
aV\u7528\u6237
p1722
aV\u671f\u5f85
p1723
aV\u63d0\u901f
p1724
aV\u4e09\u5927
p1725
aV\u52a0\u5feb
p1726
asa(dp1727
g5
S'\xc1\xf7\xc1\xbf\xeb\xef\xcc\xf3\xc7\xe5\xc1\xe3\xa3\xac\xb6\xe0\xc9\xd9\xb2\xee\xb5\xe3\xd2\xe2\xcb\xbc'
p1728
sg7
S'http://www.cnr.cn/newscenter/comment/latest/20150930/t20150930_520025400.shtml'
p1729
sg9
(lp1730
V\u6d41\u91cf
p1731
aV\u964d\u8d39
p1732
aV\u6e05\u96f6
p1733
aV\u63d0\u901f
p1734
aV\u8d44\u8d39
p1735
aV\u6743\u76ca
p1736
aV\u6d88\u8d39\u8005
p1737
aV\u5269\u4f59
p1738
aV\u6807\u51c6
p1739
aV\u56fd\u4f01\u6539\u9769
p1740
asasg35
g36
((lp1741
g1720
ag1724
ag1717
atp1742
Rp1743
sa(dp1744
g2
(lp1745
(dp1746
g5
S'\xb1\xb1\xc7\xe0\xb1\xa8\xa3\xba\xb3\xac\xbc\xb6\xd6\xd0\xd1\xa7\xa1\xb0\xc9\xf1\xbb\xb0\xa1\xb1\xca\xc7\xd4\xf5\xd1\xf9\xd6\xc6\xd4\xec\xb5\xc4'
p1747
sg7
S'http://www.cnr.cn/newscenter/comment/latest/20160105/t20160105_521031324.shtml'
p1748
sg9
(lp1749
V\u4e2d\u5b66
p1750
aV\u8d85\u7ea7
p1751
aV\u540d\u6821
p1752
aV\u519c\u6751
p1753
aV\u5b66\u751f
p1754
aV\u6559\u80b2
p1755
aV\u62db\u751f
p1756
aV\u4e3e\u529e
p1757
aV\u529f\u5229
p1758
aV\u5b66\u6821
p1759
asa(dp1760
g5
S'\xd4\xda\xd0\xa3\xc9\xfa\xb5\xc4\xd6\xca\xd2\xc9\xca\xc7\xbb\xfd\xbc\xab\xcd\xc6\xbd\xf8\xd1\xa7\xca\xf5\xd6\xce\xc0\xed'
p1761
sg7
S'http://www.cnr.cn/newscenter/comment/latest/20151207/t20151207_520707968.shtml'
p1762
sg9
(lp1763
V\u5b66\u672f
p1764
aV\u5b66\u6821
p1765
aV\u6559\u6388
p1766
aV\u517c\u804c
p1767
aV\u8058\u4efb
p1768
aV\u516c\u5f00\u4fe1
p1769
aV\u6559\u80b2
p1770
aV\u59d4\u5458\u4f1a
p1771
aV\u9ad8\u6821
p1772
aV\u4e8b\u52a1
p1773
asa(dp1774
g5
S'\xd6\xd0\xd0\xa1\xd1\xa7\xbf\xce\xcc\xc3\xa1\xb0\xb7\xc0\xb0\xac\xa1\xb1\xba\xce\xd2\xd4\xd3\xf6\xde\xcf\xde\xce'
p1775
sg7
S'http://www.cnr.cn/newscenter/comment/latest/20151203/t20151203_520674467.shtml'
p1776
sg9
(lp1777
V\u827e\u6ecb\u75c5
p1778
aV\u6559\u80b2
p1779
aV\u9632\u827e
p1780
aV\u9752\u5c11\u5e74
p1781
aV\u4e2d\u5b66\u751f
p1782
aV\u9632\u827e\u8bfe
p1783
aV\u5b66\u6821
p1784
aV\u611f\u67d3
p1785
aV\u4e2d\u5c0f\u5b66
p1786
aV24
p1787
asa(dp1788
g5
S'\xb6\xd4\xd3\xda\xd0\xa3\xd4\xb0\xc9\xcb\xba\xa6\xb0\xb8\xbe\xcd\xd3\xa6\xb8\xc3\xd5\xe2\xc3\xb4\xc5\xd0\xbe\xf6'
p1789
sg7
S'http://www.cnr.cn/newscenter/comment/latest/20151109/t20151109_520442709.shtml'
p1790
sg9
(lp1791
V\u5b66\u751f
p1792
aV\u5b66\u6821
p1793
aV\u65bd\u66b4\u8005
p1794
aV\u6cd5\u5f8b
p1795
aV\u6821\u56ed
p1796
aV\u6559\u80b2
p1797
aV\u5904\u7406
p1798
aV\u89c4\u5219
p1799
aV\u65bd\u66b4
p1800
aV\u884c\u4e3a
p1801
asa(dp1802
g5
S'\xbd\xcc\xd3\xfd\xd8\xbd\xd0\xe8\xd7\xdf\xb3\xf6\xb9\xa6\xc0\xfb\xbb\xaf\xb5\xc4\xc4\xe0\xc4\xd7'
p1803
sg7
S'http://www.cnr.cn/newscenter/comment/latest/20151029/t20151029_520318937.shtml'
p1804
sg9
(lp1805
V\u6559\u80b2
p1806
aV\u529f\u5229\u5316
p1807
aV\u529f\u5229
p1808
aV\u793e\u4f1a
p1809
aV\u5b66\u6821
p1810
aV\u5347\u5b66\u7387
p1811
aV\u5e94\u8bd5
p1812
aV\u8bfb\u4e66
p1813
aV\u6210\u4e3a
p1814
aV\u8ffd\u6c42
p1815
asa(dp1816
g5
S'\xb8\xf7\xb5\xd8\xb2\xbb\xd2\xcb\xbc\xb1\xd7\xc5\xcd\xc6\xb3\xf6\xb8\xdf\xbf\xbc\xb8\xc4\xb8\xef\xb7\xbd\xb0\xb8'
p1817
sg7
S'http://www.cnr.cn/newscenter/comment/latest/20151027/t20151027_520289567.shtml'
p1818
sg9
(lp1819
V\u9ad8\u8003
p1820
aV\u6539\u9769
p1821
aV\u5b66\u6821
p1822
aV\u8bfe\u7a0b
p1823
aV\u5b66\u751f
p1824
aV\u6539\u9769\u65b9\u6848
p1825
aV\u95ee\u9898
p1826
aV\u63a8\u8fdb
p1827
aV\u653f\u5e9c\u90e8\u95e8
p1828
aV\u6559\u80b2
p1829
asa(dp1830
g5
S'\xc3\xc0\xd3\xfd\xc6\xf0\xb2\xbd\xa3\xac\xd6\xd0\xb9\xfa\xb2\xc5\xc4\xdc\xc7\xbf\xb4\xf3\xb6\xf8\xce\xc2\xc8\xf3'
p1831
sg7
S'http://www.cnr.cn/newscenter/comment/latest/20150929/t20150929_520016328.shtml'
p1832
sg9
(lp1833
V\u7f8e\u80b2
p1834
aV\u6559\u80b2
p1835
aV\u5b66\u6821
p1836
aV\u8bfe\u7a0b
p1837
aV\u6539\u9769
p1838
aV\u865a\u6643\u4e00\u67aa
p1839
aV\u8ba4\u8ba4\u771f\u771f
p1840
aV\u8fb9\u7f18\u5316
p1841
aV\u539f\u672c
p1842
aV\u56f0\u96be\u91cd\u91cd
p1843
asasg35
g36
((lp1844
g1765
ag1770
atp1845
Rp1846
sa(dp1847
g2
(lp1848
(dp1849
g5
S'\xd4\xf5\xd1\xf9\xb7\xc0\xd6\xb9\xa1\xb0\xba\xc3\xcd\xac\xd6\xbe\xa1\xb1\xb1\xe4\xb3\xc9\xa1\xb0\xbd\xd7\xcf\xc2\xc7\xf4\xa1\xb1'
p1850
sg7
S'http://www.cnr.cn/newscenter/comment/latest/20150927/t20150927_519989604.shtml'
p1851
sg9
(lp1852
V\u9636\u4e0b\u56da
p1853
aV\u53cd\u8150
p1854
aV\u540c\u5fd7
p1855
aV\u6ca6\u4e3a
p1856
aV\u4e24\u5206\u6cd5
p1857
aV\u8981\u4e48
p1858
aV\u738b\u5c90\u5c71
p1859
aV\u6539\u53d8
p1860
aV\u5904\u5206
p1861
aV\u98ce\u66b4
p1862
asa(dp1863
g5
S'\xbc\xcd\xbc\xec\xb8\xc9\xb2\xbf\xa1\xb0\xc5\xdc\xb7\xe7\xc2\xa9\xc6\xf8\xa1\xb1\xa3\xac\xb8\xc3\xc8\xe7\xba\xce\xbc\xe0\xb6\xbd'
p1864
sg7
S'http://www.cnr.cn/newscenter/comment/latest/20150925/t20150925_519970831.shtml'
p1865
sg9
(lp1866
V\u7eaa\u59d4
p1867
aV\u76d1\u7763
p1868
aV\u53cd\u8150
p1869
aV\u7eaa\u68c0\u76d1\u5bdf
p1870
aV\u738b\u5c90\u5c71
p1871
aV\u4e2d\u7eaa\u59d4
p1872
aV\u7eaa\u68c0
p1873
aV\u51c0\u571f
p1874
aV\u56de\u907f
p1875
aV\u95ee\u9898
p1876
asasg35
g36
((lp1877
g1871
ag1869
atp1878
Rp1879
sa(dp1880
g2
(lp1881
(dp1882
g5
S'\xb6\xd4\xa1\xb0\xb5\xcd\xb5\xf7\xce\xa5\xbc\xcd\xa1\xb1\xb2\xbb\xc4\xdc\xa1\xb0\xb5\xcd\xb5\xf7\xb4\xa6\xc0\xed\xa1\xb1'
p1883
sg7
S'http://www.cnr.cn/newscenter/comment/latest/20151129/t20151129_520631151.shtml'
p1884
sg9
(lp1885
V\u7eaa\u59d4
p1886
aV\u8fdd\u7eaa
p1887
aV\u5b98\u5458
p1888
aV\u5904\u7f5a
p1889
aV\u5904\u5206
p1890
aV\u9756\u5b87\u53bf
p1891
aV\u4f4e\u8c03
p1892
aV\u65b0\u534e\u4e66\u5e97
p1893
aV\u6267\u7eaa
p1894
aV\u9ad8\u8c03
p1895
asa(dp1896
g5
S'\xb9\xd9\xd4\xb1\xa1\xb0\xbd\xd0\xb0\xe5\xa1\xb1\xbc\xcd\xce\xaf\xb5\xc4\xb5\xd7\xc6\xf8\xba\xce\xc0\xb4\xa3\xbf'
p1897
sg7
S'http://www.cnr.cn/newscenter/comment/latest/20151103/t20151103_520372567.shtml'
p1898
sg9
(lp1899
V\u77f3\u8f89
p1900
aV\u8d2a\u8150
p1901
aV\u7eaa\u59d4
p1902
aV\u5b98\u573a
p1903
aV\u53eb\u677f
p1904
aV\u884c\u4e3a
p1905
aV\u5b98\u5458
p1906
aV\u81ea\u4fe1
p1907
aV\u79c1\u7528
p1908
aV\u9080\u529f
p1909
asa(dp1910
g5
S'\xa1\xb0\xb4\xa6\xb7\xd6\xcb\xc0\xcd\xf6\xb9\xd9\xd4\xb1\xa1\xb1\xb2\xbb\xce\xaa\xb4\xf2\xb9\xed\xa3\xac\xd6\xbb\xce\xaa\xc9\xe5\xc8\xcb'
p1911
sg7
S'http://www.cnr.cn/newscenter/comment/latest/20150921/t20150921_519915031.shtml'
p1912
sg9
(lp1913
V\u5b98\u5458
p1914
aV\u7eaa\u59d4
p1915
aV\u81ea\u6740
p1916
aV\u8150\u8d25
p1917
aV\u90f4\u5dde\u5e02
p1918
aV\u8fdd\u7eaa
p1919
aV\u8fdd\u6cd5
p1920
aV\u6b7b\u8d26
p1921
aV\u6b7b\u4ea1
p1922
aV\u5904\u5206
p1923
asasg35
g36
((lp1924
g1902
ag1906
atp1925
Rp1926
sa(dp1927
g2
(lp1928
(dp1929
g5
S'\xc0\xfa\xca\xb7\xbe\xad\xd1\xe9\xc6\xf4\xca\xbe\xd6\xd0\xc3\xc0\xb9\xd8\xcf\xb5\xce\xb4\xc0\xb4'
p1930
sg7
S'http://www.cnr.cn/newscenter/comment/latest/20150920/t20150920_519910427.shtml'
p1931
sg9
(lp1932
V\u4e24\u56fd
p1933
aV70
p1934
aV\u4e2d\u7f8e\u5173\u7cfb
p1935
aV\u5386\u53f2
p1936
aV\u4e2d\u7f8e\u5408\u4f5c
p1937
aV\u4e16\u754c\u53cd\u6cd5\u897f\u65af\u6218\u4e89
p1938
aV\u4e16\u754c
p1939
aV\u7f8e\u56fd
p1940
aV\u4e2d\u7f8e
p1941
aV\u8840\u5e45
p1942
asa(dp1943
g5
S'\xd6\xd0\xc3\xc0\xb9\xd8\xcf\xb5\xc0\xeb\xbf\xaa\xbe\xc9\xca\xb1\xb4\xfa\xcf\xf2\xc7\xb0\xd7\xdf\xc1\xcb\xba\xdc\xd4\xb6'
p1944
sg7
S'http://www.cnr.cn/newscenter/comment/latest/20150919/t20150919_519907005.shtml'
p1945
sg9
(lp1946
V\u4e2d\u7f8e\u5173\u7cfb
p1947
aV\u4e2d\u7f8e
p1948
aV\u8bbf\u95ee
p1949
aV\u4e24\u56fd
p1950
aV\u6218\u7565
p1951
aV\u5927\u56fd
p1952
aV\u7f8e\u56fd
p1953
aV\u5408\u4f5c
p1954
aV\u53cc\u8fb9\u5173\u7cfb
p1955
aV\u5b83\u4eec
p1956
asasg35
g36
((lp1957
g1948
ag1950
ag1953
ag1947
atp1958
Rp1959
sa(dp1960
g2
(lp1961
(dp1962
g5
S'\xb1\xf0\xbc\xb1\xd7\xc5\xd7\xf6\xa1\xb0\xb7\xe7\xbf\xda\xc4\xc7\xcd\xb7\xd6\xed\xa1\xb1'
p1963
sg7
S'http://www.cnr.cn/newscenter/comment/latest/20151119/t20151119_520544732.shtml'
p1964
sg9
(lp1965
V\u521b\u4e1a
p1966
aV\u5e74\u8f7b\u4eba
p1967
aV\u521b\u65b0
p1968
aV\u5f15\u5bfc
p1969
aV\u9ad8\u6821
p1970
aV\u793e\u4f1a
p1971
aV\u5927\u5b66\u751f
p1972
aV\u6559\u80b2
p1973
aV\u9752\u5e74\u4eba
p1974
aV\u5f00\u529e
p1975
asa(dp1976
g5
S'\xa1\xb0\xb9\xf3\xd6\xdd\xc2\xb7\xbe\xb6\xa1\xb1\xa3\xac\xc2\xb7\xb6\xd4\xc1\xcb\xbe\xcd\xb2\xbb\xc5\xc2\xd4\xb6'
p1977
sg7
S'http://www.cnr.cn/newscenter/comment/latest/20151102/t20151102_520358165.shtml'
p1978
sg9
(lp1979
V\u4f17\u7b79
p1980
aV\u8d35\u5dde
p1981
aV\u521b\u65b0
p1982
aV\u8def\u5f84
p1983
aV\u53d1\u5c55
p1984
aV\u8d35\u9633
p1985
aV\u533a\u57df
p1986
aV\u63a2\u7d22
p1987
aV\u521b\u4e1a\u8005
p1988
aV\u521b\u5ba2
p1989
asa(dp1990
g5
S'\xc8\xc3\xa1\xb0\xcb\xab\xb4\xb4\xa1\xb1\xb3\xc9\xce\xaa\xb3\xc7\xca\xd0\xb5\xc4\xbe\xab\xc9\xf1\xbb\xf9\xd2\xf2'
p1991
sg7
S'http://www.cnr.cn/newscenter/comment/latest/20150918/t20150918_519899750.shtml'
p1992
sg9
(lp1993
V\u53cc\u521b
p1994
aV\u521b\u4e1a
p1995
aV\u521b\u65b0
p1996
aV\u4e4b\u661f
p1997
aV\u4f17\u521b
p1998
aV\u521b\u5ba2
p1999
aV\u521b\u610f
p2000
aV\u57ce\u5e02
p2001
aV\u6d3b\u52a8
p2002
aV\u53d1\u73b0
p2003
asa(dp2004
g5
S'\xb1\xf0\xb9\xbc\xb8\xba\xa1\xb0\xcb\xab\xb4\xb4\xa1\xb1\xbb\xc6\xbd\xf0\xca\xb1\xb4\xfa'
p2005
sg7
S'http://www.cnr.cn/newscenter/comment/latest/20150918/t20150918_519899393.shtml'
p2006
sg9
(lp2007
V\u521b\u4e1a
p2008
aV\u521b\u65b0
p2009
aV\u53cc\u521b
p2010
aV\u521b\u5ba2
p2011
aV\u4f17\u521b
p2012
aV\u65e0\u7a77\u7684
p2013
aV\u8f9c\u8d1f
p2014
aV\u594b\u6597
p2015
aV\u7a7a\u95f4
p2016
aV\u63a8\u52a8
p2017
asasg35
g1965
sa(dp2018
g2
(lp2019
(dp2020
g5
S'\xcd\xf8\xca\xdb\xa1\xb0\xcd\xed\xb0\xb2\xa1\xb1\xa3\xac\xd2\xbb\xcc\xf5\xb6\xcc\xd0\xc5\xb5\xc4\xb5\xeb\xc4\xee'
p2021
sg7
S'http://www.cnr.cn/newscenter/comment/latest/20151005/t20151005_520055211.shtml'
p2022
sg9
(lp2023
V\u665a\u5b89
p2024
aV\u5b64\u72ec
p2025
aV\u5173\u7cfb
p2026
aV\u57ce\u5e02
p2027
aV\u57ce\u9547\u5316
p2028
aV\u793e\u4ea4
p2029
aV\u793e\u4f1a\u5173\u7cfb
p2030
aV\u77ed\u4fe1
p2031
aV\u7396\u59b9
p2032
aV\u57ce\u9547\u5316\u7387
p2033
asa(dp2034
g5
S'\xb2\xbb\xd3\xc3\xca\xab\xd2\xe2\xbb\xaf\xa1\xb0\xc2\xf4\xcd\xed\xb0\xb2\xa1\xb1'
p2035
sg7
S'http://www.cnr.cn/newscenter/comment/latest/20150918/t20150918_519899382.shtml'
p2036
sg9
(lp2037
V\u665a\u5b89
p2038
aV\u5973\u767d\u9886
p2039
aV\u9001\u7ed9
p2040
aV\u5185\u5fc3
p2041
aV\u751f\u610f
p2042
aV\u77ed\u4fe1
p2043
aV\u7396\u59b9
p2044
aV\u60c5\u611f
p2045
aV\u6211\u4eec
p2046
aV\u57ce\u5e02
p2047
asasg35
g36
((lp2048
g2044
ag2047
ag2043
ag2038
atp2049
Rp2050
sa.